(dp0
cdatetime
date
p1
(S'\x07\xdc\t\x19'
p2
tp3
Rp4
(dp5
S'Irradiance'
p6
(dp7
S'19283'
p8
(lp9
F0.88
aF0.73
aF0.5
aF0.53
aF0.81
aF0.93
aF1.0
aF0.93
aF0.94
aF1.0
aF0.94
aF0.93
aF0.63
aF0.73
aF0.94
aF0.44
aF1.0
aF0.4
aF0.31
aF0.53
aF0.75
aF0.88
aF0.87
aF0.94
aF1.0
aF0.8
aF0.69
aF0.93
aF0.93
aF0.67
aF0.94
aF0.8
aF1.0
aF0.87
aF1.0
aF1.0
aF1.0
aF1.0
aF1.0
aF1.0
aF1.0
aF1.0
aF1.0
aF1.0
aF0.73
aF1.0
aF1.0
aF1.0
aF1.0
aF1.13
aF1.0
aF1.0
aF1.0
aF1.0
aF1.06
aF1.0
aF1.13
aF1.07
aF1.25
aF1.6
aF1.06
aF1.07
aF1.0
aF1.4
aF1.06
aF1.0
aF0.94
aF1.0
aF1.0
aF1.13
aF1.19
aF1.0
aF1.13
aF1.14
aF1.0
aF1.6
aF1.56
aF1.33
aF1.0
aF1.53
aF1.36
aF1.83
aF2.22
aF5.06
aF2.28
aF8.53
aF14.94
aF6.39
aF17.53
aF41.18
aF15.35
aF19.0
aF40.63
aF75.22
aF119.67
aF364.06
aF392.59
aF356.11
aF202.88
aF177.41
aF54.89
aF57.88
aF108.94
aF205.41
aF386.35
aF65.29
aF21.78
aF44.69
aF72.33
aF119.82
aF91.06
aF88.83
aF129.5
aF115.06
aF82.76
assS'Pdc_b'
p10
(dp11
S'2110014988'
p12
(lp13
Fnan
aFnan
aFnan
aFnan
aFnan
aFnan
aFnan
aFnan
aFnan
aFnan
aFnan
aFnan
aFnan
aFnan
aFnan
aFnan
aFnan
aFnan
aFnan
aFnan
aFnan
aFnan
aFnan
aFnan
aFnan
aFnan
aFnan
aFnan
aFnan
aFnan
aFnan
aFnan
aFnan
aFnan
aFnan
aFnan
aFnan
aFnan
aFnan
aFnan
aFnan
aFnan
aFnan
aFnan
aFnan
aFnan
aFnan
aFnan
aFnan
aFnan
aFnan
aFnan
aFnan
aFnan
aFnan
aFnan
aFnan
aFnan
aFnan
aFnan
aFnan
aFnan
aFnan
aFnan
aFnan
aFnan
aFnan
aFnan
aFnan
aFnan
aFnan
aFnan
aFnan
aFnan
aFnan
aFnan
aFnan
aFnan
aFnan
aFnan
aF9.22
aF16.44
aF23.72
aF35.94
aF26.11
aF45.24
aF69.0
aF39.11
aF77.18
aF178.76
aF72.24
aF86.22
aF166.6
aF303.78
aF439.17
aF1631.71
aF1703.65
aF1588.06
aF988.31
aF746.44
aF212.71
aF215.38
aF402.06
aF699.41
aF1638.18
aF314.47
aF90.11
aF174.75
aF290.28
aF493.47
aF366.12
aF369.22
aF507.11
aF469.88
aF313.18
asS'2110015254'
p14
(lp15
Fnan
aFnan
aFnan
aFnan
aFnan
aFnan
aFnan
aFnan
aFnan
aFnan
aFnan
aFnan
aFnan
aFnan
aFnan
aFnan
aFnan
aFnan
aFnan
aFnan
aFnan
aFnan
aFnan
aFnan
aFnan
aFnan
aFnan
aFnan
aFnan
aFnan
aFnan
aFnan
aFnan
aFnan
aFnan
aFnan
aFnan
aFnan
aFnan
aFnan
aFnan
aFnan
aFnan
aFnan
aFnan
aFnan
aFnan
aFnan
aFnan
aFnan
aFnan
aFnan
aFnan
aFnan
aFnan
aFnan
aFnan
aFnan
aFnan
aFnan
aFnan
aFnan
aFnan
aFnan
aFnan
aFnan
aFnan
aFnan
aFnan
aFnan
aFnan
aFnan
aFnan
aFnan
aFnan
aFnan
aFnan
aFnan
aFnan
aFnan
aF3.0
aF12.72
aF21.59
aF31.35
aF23.56
aF41.56
aF64.5
aF34.94
aF75.06
aF175.63
aF70.06
aF80.06
aF167.56
aF299.5
aF491.22
aF1519.5
aF1602.61
aF1449.35
aF911.71
aF706.35
aF220.65
aF232.65
aF424.06
aF684.28
aF1609.65
aF261.0
aF89.06
aF176.35
aF299.5
aF481.71
aF359.82
aF355.67
aF517.17
aF449.94
aF330.71
asS'2110025442'
p16
(lp17
Fnan
aFnan
aFnan
aFnan
aFnan
aFnan
aFnan
aFnan
aFnan
aFnan
aFnan
aFnan
aFnan
aFnan
aFnan
aFnan
aFnan
aFnan
aFnan
aFnan
aFnan
aFnan
aFnan
aFnan
aFnan
aFnan
aFnan
aFnan
aFnan
aFnan
aFnan
aFnan
aFnan
aFnan
aFnan
aFnan
aFnan
aFnan
aFnan
aFnan
aFnan
aFnan
aFnan
aFnan
aFnan
aFnan
aFnan
aFnan
aFnan
aFnan
aFnan
aFnan
aFnan
aFnan
aFnan
aFnan
aFnan
aFnan
aFnan
aFnan
aFnan
aFnan
aFnan
aFnan
aFnan
aFnan
aFnan
aFnan
aFnan
aFnan
aFnan
aFnan
aFnan
aFnan
aFnan
aFnan
aFnan
aFnan
aFnan
aFnan
aF0.45
aF6.0
aF14.78
aF25.0
aF16.53
aF34.47
aF58.63
aF28.5
aF68.0
aF170.44
aF62.11
aF73.18
aF161.38
aF287.59
aF412.11
aF1653.71
aF1693.53
aF1528.33
aF941.24
aF764.12
aF200.88
aF207.0
aF396.18
aF655.17
aF1676.44
aF281.53
aF78.28
aF168.0
aF278.71
aF466.06
aF345.76
aF342.06
aF504.67
aF433.81
aF308.88
assS'Vdc_b'
p18
(dp19
S'2110014988'
p20
(lp21
Fnan
aFnan
aFnan
aFnan
aFnan
aFnan
aFnan
aFnan
aFnan
aFnan
aFnan
aFnan
aFnan
aFnan
aFnan
aFnan
aFnan
aFnan
aFnan
aFnan
aFnan
aFnan
aFnan
aFnan
aFnan
aFnan
aFnan
aFnan
aFnan
aFnan
aFnan
aFnan
aFnan
aFnan
aFnan
aFnan
aFnan
aFnan
aFnan
aFnan
aFnan
aFnan
aFnan
aFnan
aFnan
aFnan
aFnan
aFnan
aFnan
aFnan
aFnan
aFnan
aFnan
aFnan
aFnan
aFnan
aFnan
aFnan
aFnan
aFnan
aFnan
aFnan
aFnan
aFnan
aFnan
aFnan
aFnan
aFnan
aFnan
aFnan
aFnan
aFnan
aFnan
aFnan
aFnan
aFnan
aFnan
aFnan
aFnan
aFnan
aF482.07
aF471.22
aF426.28
aF437.22
aF439.34
aF443.86
aF470.24
aF456.58
aF468.45
aF506.81
aF465.18
aF475.62
aF498.93
aF521.51
aF528.81
aF551.72
aF549.97
aF543.51
aF531.58
aF532.73
aF517.25
aF517.44
aF530.01
aF543.31
aF544.81
aF516.08
aF473.43
aF502.7
aF517.14
aF533.32
aF524.49
aF525.56
aF531.38
aF531.27
aF526.92
asS'2110015254'
p22
(lp23
Fnan
aFnan
aFnan
aFnan
aFnan
aFnan
aFnan
aFnan
aFnan
aFnan
aFnan
aFnan
aFnan
aFnan
aFnan
aFnan
aFnan
aFnan
aFnan
aFnan
aFnan
aFnan
aFnan
aFnan
aFnan
aFnan
aFnan
aFnan
aFnan
aFnan
aFnan
aFnan
aFnan
aFnan
aFnan
aFnan
aFnan
aFnan
aFnan
aFnan
aFnan
aFnan
aFnan
aFnan
aFnan
aFnan
aFnan
aFnan
aFnan
aFnan
aFnan
aFnan
aFnan
aFnan
aFnan
aFnan
aFnan
aFnan
aFnan
aFnan
aFnan
aFnan
aFnan
aFnan
aFnan
aFnan
aFnan
aFnan
aFnan
aFnan
aFnan
aFnan
aFnan
aFnan
aFnan
aFnan
aFnan
aFnan
aFnan
aFnan
aF477.4
aF460.43
aF415.62
aF427.65
aF431.04
aF433.9
aF456.73
aF442.24
aF459.32
aF497.6
aF460.23
aF460.69
aF488.74
aF513.67
aF513.49
aF496.65
aF504.99
aF516.26
aF511.09
aF522.3
aF499.42
aF503.64
aF516.22
aF530.55
aF524.56
aF503.02
aF459.66
aF491.18
aF509.54
aF522.75
aF515.25
aF512.88
aF521.33
aF520.11
aF514.24
asS'2110025442'
p24
(lp25
Fnan
aFnan
aFnan
aFnan
aFnan
aFnan
aFnan
aFnan
aFnan
aFnan
aFnan
aFnan
aFnan
aFnan
aFnan
aFnan
aFnan
aFnan
aFnan
aFnan
aFnan
aFnan
aFnan
aFnan
aFnan
aFnan
aFnan
aFnan
aFnan
aFnan
aFnan
aFnan
aFnan
aFnan
aFnan
aFnan
aFnan
aFnan
aFnan
aFnan
aFnan
aFnan
aFnan
aFnan
aFnan
aFnan
aFnan
aFnan
aFnan
aFnan
aFnan
aFnan
aFnan
aFnan
aFnan
aFnan
aFnan
aFnan
aFnan
aFnan
aFnan
aFnan
aFnan
aFnan
aFnan
aFnan
aFnan
aFnan
aFnan
aFnan
aFnan
aFnan
aFnan
aFnan
aFnan
aFnan
aFnan
aFnan
aFnan
aFnan
aF463.54
aF477.27
aF426.92
aF437.39
aF434.67
aF439.6
aF469.94
aF448.3
aF466.87
aF505.29
aF473.57
aF472.74
aF492.77
aF518.78
aF522.03
aF544.68
aF543.8
aF541.0
aF529.86
aF528.2
aF512.72
aF519.35
aF529.19
aF537.36
aF538.81
aF512.25
aF471.63
aF498.94
aF517.48
aF532.3
aF524.56
aF521.51
aF530.39
aF528.1
aF525.4
assS'Tambient'
p26
(dp27
S'19283'
p28
(lp29
F9.51
aF9.52
aF9.49
aF9.46
aF9.47
aF9.42
aF9.43
aF9.42
aF9.42
aF9.53
aF9.39
aF9.29
aF9.26
aF9.26
aF9.25
aF9.21
aF9.31
aF9.32
aF9.29
aF9.3
aF9.12
aF8.26
aF7.99
aF7.92
aF7.76
aF7.64
aF7.96
aF8.09
aF8.18
aF8.26
aF7.85
aF7.82
aF7.83
aF7.64
aF7.53
aF7.55
aF7.59
aF7.68
aF7.8
aF7.86
aF8.02
aF8.18
aF8.14
aF8.2
aF8.13
aF8.16
aF8.17
aF8.23
aF8.21
aF8.11
aF8.05
aF8.13
aF8.21
aF8.27
aF8.26
aF8.15
aF8.3
aF8.38
aF8.46
aF8.5
aF8.62
aF8.61
aF8.67
aF8.64
aF8.72
aF8.78
aF8.83
aF8.73
aF8.8
aF8.82
aF8.87
aF8.93
aF8.91
aF8.87
aF8.84
aF8.82
aF8.91
aF8.96
aF8.94
aF8.91
aF8.92
aF8.92
aF8.92
aF8.84
aF8.8
aF8.75
aF8.86
aF8.93
aF8.92
aF9.05
aF9.05
aF9.03
aF9.09
aF9.29
aF9.34
aF9.61
aF9.8
aF10.14
aF9.91
aF9.72
aF9.64
aF9.56
aF9.57
aF9.71
aF10.15
aF9.94
aF9.57
aF9.45
aF9.5
aF9.65
aF9.65
aF9.76
aF9.76
aF9.84
aF9.74
assS'Clock'
p30
(dp31
S'000'
p32
(lp33
S'00:00'
p34
aS'00:05'
p35
aS'00:10'
p36
aS'00:15'
p37
aS'00:20'
p38
aS'00:25'
p39
aS'00:30'
p40
aS'00:35'
p41
aS'00:40'
p42
aS'00:45'
p43
aS'00:50'
p44
aS'00:55'
p45
aS'01:00'
p46
aS'01:05'
p47
aS'01:10'
p48
aS'01:15'
p49
aS'01:20'
p50
aS'01:25'
p51
aS'01:30'
p52
aS'01:35'
p53
aS'01:40'
p54
aS'01:45'
p55
aS'01:50'
p56
aS'01:55'
p57
aS'02:00'
p58
aS'02:05'
p59
aS'02:10'
p60
aS'02:15'
p61
aS'02:20'
p62
aS'02:25'
p63
aS'02:30'
p64
aS'02:35'
p65
aS'02:40'
p66
aS'02:45'
p67
aS'02:50'
p68
aS'02:55'
p69
aS'03:00'
p70
aS'03:05'
p71
aS'03:10'
p72
aS'03:15'
p73
aS'03:20'
p74
aS'03:25'
p75
aS'03:30'
p76
aS'03:35'
p77
aS'03:40'
p78
aS'03:45'
p79
aS'03:50'
p80
aS'03:55'
p81
aS'04:00'
p82
aS'04:05'
p83
aS'04:10'
p84
aS'04:15'
p85
aS'04:20'
p86
aS'04:25'
p87
aS'04:30'
p88
aS'04:35'
p89
aS'04:40'
p90
aS'04:45'
p91
aS'04:50'
p92
aS'04:55'
p93
aS'05:00'
p94
aS'05:05'
p95
aS'05:10'
p96
aS'05:15'
p97
aS'05:20'
p98
aS'05:25'
p99
aS'05:30'
p100
aS'05:35'
p101
aS'05:40'
p102
aS'05:45'
p103
aS'05:50'
p104
aS'05:55'
p105
aS'06:00'
p106
aS'06:05'
p107
aS'06:10'
p108
aS'06:15'
p109
aS'06:20'
p110
aS'06:25'
p111
aS'06:30'
p112
aS'06:35'
p113
aS'06:40'
p114
aS'06:45'
p115
aS'06:50'
p116
aS'06:55'
p117
aS'07:00'
p118
aS'07:05'
p119
aS'07:10'
p120
aS'07:15'
p121
aS'07:20'
p122
aS'07:25'
p123
aS'07:30'
p124
aS'07:35'
p125
aS'07:40'
p126
aS'07:45'
p127
aS'07:50'
p128
aS'07:55'
p129
aS'08:00'
p130
aS'08:05'
p131
aS'08:10'
p132
aS'08:15'
p133
aS'08:20'
p134
aS'08:25'
p135
aS'08:30'
p136
aS'08:35'
p137
aS'08:40'
p138
aS'08:45'
p139
aS'08:50'
p140
aS'08:55'
p141
aS'09:00'
p142
aS'09:05'
p143
aS'09:10'
p144
aS'09:15'
p145
aS'09:20'
p146
aS'09:25'
p147
aS'09:30'
p148
assS'Idc_b'
p149
(dp150
S'2110014988'
p151
(lp152
Fnan
aFnan
aFnan
aFnan
aFnan
aFnan
aFnan
aFnan
aFnan
aFnan
aFnan
aFnan
aFnan
aFnan
aFnan
aFnan
aFnan
aFnan
aFnan
aFnan
aFnan
aFnan
aFnan
aFnan
aFnan
aFnan
aFnan
aFnan
aFnan
aFnan
aFnan
aFnan
aFnan
aFnan
aFnan
aFnan
aFnan
aFnan
aFnan
aFnan
aFnan
aFnan
aFnan
aFnan
aFnan
aFnan
aFnan
aFnan
aFnan
aFnan
aFnan
aFnan
aFnan
aFnan
aFnan
aFnan
aFnan
aFnan
aFnan
aFnan
aFnan
aFnan
aFnan
aFnan
aFnan
aFnan
aFnan
aFnan
aFnan
aFnan
aFnan
aFnan
aFnan
aFnan
aFnan
aFnan
aFnan
aFnan
aFnan
aFnan
aF0.02
aF0.04
aF0.06
aF0.08
aF0.06
aF0.1
aF0.15
aF0.09
aF0.17
aF0.35
aF0.16
aF0.18
aF0.33
aF0.58
aF0.83
aF2.96
aF3.08
aF2.9
aF1.83
aF1.39
aF0.41
aF0.42
aF0.76
aF1.28
aF2.98
aF0.61
aF0.19
aF0.35
aF0.56
aF0.93
aF0.7
aF0.7
aF0.95
aF0.88
aF0.6
asS'2110015254'
p153
(lp154
Fnan
aFnan
aFnan
aFnan
aFnan
aFnan
aFnan
aFnan
aFnan
aFnan
aFnan
aFnan
aFnan
aFnan
aFnan
aFnan
aFnan
aFnan
aFnan
aFnan
aFnan
aFnan
aFnan
aFnan
aFnan
aFnan
aFnan
aFnan
aFnan
aFnan
aFnan
aFnan
aFnan
aFnan
aFnan
aFnan
aFnan
aFnan
aFnan
aFnan
aFnan
aFnan
aFnan
aFnan
aFnan
aFnan
aFnan
aFnan
aFnan
aFnan
aFnan
aFnan
aFnan
aFnan
aFnan
aFnan
aFnan
aFnan
aFnan
aFnan
aFnan
aFnan
aFnan
aFnan
aFnan
aFnan
aFnan
aFnan
aFnan
aFnan
aFnan
aFnan
aFnan
aFnan
aFnan
aFnan
aFnan
aFnan
aFnan
aFnan
aF0.01
aF0.03
aF0.05
aF0.08
aF0.06
aF0.1
aF0.14
aF0.08
aF0.16
aF0.35
aF0.15
aF0.17
aF0.34
aF0.58
aF0.96
aF3.04
aF3.21
aF2.83
aF1.8
aF1.36
aF0.44
aF0.46
aF0.82
aF1.29
aF3.04
aF0.52
aF0.19
aF0.36
aF0.59
aF0.92
aF0.7
aF0.69
aF0.99
aF0.86
aF0.64
asS'2110025442'
p155
(lp156
Fnan
aFnan
aFnan
aFnan
aFnan
aFnan
aFnan
aFnan
aFnan
aFnan
aFnan
aFnan
aFnan
aFnan
aFnan
aFnan
aFnan
aFnan
aFnan
aFnan
aFnan
aFnan
aFnan
aFnan
aFnan
aFnan
aFnan
aFnan
aFnan
aFnan
aFnan
aFnan
aFnan
aFnan
aFnan
aFnan
aFnan
aFnan
aFnan
aFnan
aFnan
aFnan
aFnan
aFnan
aFnan
aFnan
aFnan
aFnan
aFnan
aFnan
aFnan
aFnan
aFnan
aFnan
aFnan
aFnan
aFnan
aFnan
aFnan
aFnan
aFnan
aFnan
aFnan
aFnan
aFnan
aFnan
aFnan
aFnan
aFnan
aFnan
aFnan
aFnan
aFnan
aFnan
aFnan
aFnan
aFnan
aFnan
aFnan
aFnan
aF0.0
aF0.01
aF0.04
aF0.06
aF0.04
aF0.08
aF0.13
aF0.06
aF0.15
aF0.34
aF0.13
aF0.15
aF0.32
aF0.55
aF0.79
aF3.02
aF3.09
aF2.81
aF1.74
aF1.45
aF0.39
aF0.4
aF0.75
aF1.22
aF3.08
aF0.55
aF0.17
aF0.33
aF0.54
aF0.88
aF0.66
aF0.66
aF0.95
aF0.82
aF0.59
assS'Tmodule'
p157
(dp158
S'19283'
p159
(lp160
F8.1
aF8.22
aF8.23
aF8.23
aF8.23
aF8.14
aF8.14
aF8.23
aF8.23
aF8.3
aF8.15
aF7.93
aF7.84
aF7.95
aF7.87
aF7.83
aF7.94
aF8.03
aF8.04
aF8.08
aF7.81
aF7.24
aF6.78
aF6.48
aF6.26
aF6.41
aF6.72
aF6.93
aF7.05
aF7.17
aF6.86
aF6.63
aF6.69
aF6.5
aF6.32
aF6.38
aF6.53
aF6.59
aF6.73
aF6.66
aF6.76
aF6.96
aF6.91
aF7.01
aF6.98
aF6.94
aF7.03
aF7.12
aF7.13
aF6.98
aF6.86
aF6.84
aF6.73
aF6.74
aF6.75
aF6.68
aF6.69
aF6.92
aF7.04
aF7.13
aF7.22
aF7.31
aF7.31
aF7.43
aF7.51
aF7.57
aF7.66
aF7.66
aF7.63
aF7.72
aF7.65
aF7.64
aF7.66
aF7.63
aF7.71
aF7.63
aF7.74
aF7.83
aF7.74
aF7.51
aF7.49
aF7.61
aF7.65
aF7.63
aF7.63
aF7.54
aF7.61
aF7.72
aF7.76
aF8.03
aF8.14
aF8.22
aF8.17
aF8.34
aF8.7
aF10.48
aF11.44
aF13.32
aF13.38
aF11.27
aF10.5
aF9.59
aF9.44
aF9.69
aF11.42
aF11.19
aF9.5
aF8.57
aF8.55
aF8.97
aF9.23
aF9.33
aF9.46
aF9.76
aF9.5
assS'En_meter'
p161
(dp162
S'2110014988'
p163
(lp164
Fnan
aFnan
aFnan
aFnan
aFnan
aFnan
aFnan
aFnan
aFnan
aFnan
aFnan
aFnan
aFnan
aFnan
aFnan
aFnan
aFnan
aFnan
aFnan
aFnan
aFnan
aFnan
aFnan
aFnan
aFnan
aFnan
aFnan
aFnan
aFnan
aFnan
aFnan
aFnan
aFnan
aFnan
aFnan
aFnan
aFnan
aFnan
aFnan
aFnan
aFnan
aFnan
aFnan
aFnan
aFnan
aFnan
aFnan
aFnan
aFnan
aFnan
aFnan
aFnan
aFnan
aFnan
aFnan
aFnan
aFnan
aFnan
aFnan
aFnan
aFnan
aFnan
aFnan
aFnan
aFnan
aFnan
aFnan
aFnan
aFnan
aFnan
aFnan
aFnan
aFnan
aFnan
aFnan
aFnan
aFnan
aFnan
aFnan
aFnan
aF11879.12
aF11879.12
aF11879.12
aF11879.13
aF11879.14
aF11879.15
aF11879.16
aF11879.17
aF11879.19
aF11879.25
aF11879.27
aF11879.3
aF11879.34
aF11879.44
aF11879.57
aF11880.14
aF11880.68
aF11881.2
aF11881.54
aF11881.79
aF11881.86
aF11881.92
aF11882.06
aF11882.3
aF11882.82
aF11882.94
aF11882.96
aF11883.01
aF11883.1
aF11883.26
aF11883.38
aF11883.5
aF11883.66
aF11883.82
aF11883.91
asS'2110015254'
p165
(lp166
Fnan
aFnan
aFnan
aFnan
aFnan
aFnan
aFnan
aFnan
aFnan
aFnan
aFnan
aFnan
aFnan
aFnan
aFnan
aFnan
aFnan
aFnan
aFnan
aFnan
aFnan
aFnan
aFnan
aFnan
aFnan
aFnan
aFnan
aFnan
aFnan
aFnan
aFnan
aFnan
aFnan
aFnan
aFnan
aFnan
aFnan
aFnan
aFnan
aFnan
aFnan
aFnan
aFnan
aFnan
aFnan
aFnan
aFnan
aFnan
aFnan
aFnan
aFnan
aFnan
aFnan
aFnan
aFnan
aFnan
aFnan
aFnan
aFnan
aFnan
aFnan
aFnan
aFnan
aFnan
aFnan
aFnan
aFnan
aFnan
aFnan
aFnan
aFnan
aFnan
aFnan
aFnan
aFnan
aFnan
aFnan
aFnan
aFnan
aFnan
aF11938.84
aF11938.84
aF11938.85
aF11938.85
aF11938.86
aF11938.87
aF11938.89
aF11938.89
aF11938.92
aF11938.97
aF11938.99
aF11939.02
aF11939.07
aF11939.17
aF11939.32
aF11939.86
aF11940.44
aF11940.92
aF11941.26
aF11941.51
aF11941.58
aF11941.66
aF11941.79
aF11942.04
aF11942.57
aF11942.65
aF11942.68
aF11942.73
aF11942.83
aF11942.99
aF11943.1
aF11943.22
aF11943.39
aF11943.54
aF11943.65
asS'2110025442'
p167
(lp168
Fnan
aFnan
aFnan
aFnan
aFnan
aFnan
aFnan
aFnan
aFnan
aFnan
aFnan
aFnan
aFnan
aFnan
aFnan
aFnan
aFnan
aFnan
aFnan
aFnan
aFnan
aFnan
aFnan
aFnan
aFnan
aFnan
aFnan
aFnan
aFnan
aFnan
aFnan
aFnan
aFnan
aFnan
aFnan
aFnan
aFnan
aFnan
aFnan
aFnan
aFnan
aFnan
aFnan
aFnan
aFnan
aFnan
aFnan
aFnan
aFnan
aFnan
aFnan
aFnan
aFnan
aFnan
aFnan
aFnan
aFnan
aFnan
aFnan
aFnan
aFnan
aFnan
aFnan
aFnan
aFnan
aFnan
aFnan
aFnan
aFnan
aFnan
aFnan
aFnan
aFnan
aFnan
aFnan
aFnan
aFnan
aFnan
aFnan
aFnan
aF11960.2
aF11960.2
aF11960.21
aF11960.22
aF11960.22
aF11960.23
aF11960.25
aF11960.26
aF11960.28
aF11960.33
aF11960.35
aF11960.38
aF11960.43
aF11960.52
aF11960.65
aF11961.22
aF11961.76
aF11962.28
aF11962.62
aF11962.86
aF11962.93
aF11963.0
aF11963.13
aF11963.37
aF11963.89
aF11963.99
aF11964.02
aF11964.07
aF11964.16
aF11964.32
aF11964.43
aF11964.55
aF11964.71
aF11964.86
aF11964.96
assS'Etotal'
p169
(dp170
g163
F4.79
sg165
F4.81
sg167
F4.76
ssS'Vdc'
p171
(dp172
S'2110014988'
p173
(lp174
Fnan
aFnan
aFnan
aFnan
aFnan
aFnan
aFnan
aFnan
aFnan
aFnan
aFnan
aFnan
aFnan
aFnan
aFnan
aFnan
aFnan
aFnan
aFnan
aFnan
aFnan
aFnan
aFnan
aFnan
aFnan
aFnan
aFnan
aFnan
aFnan
aFnan
aFnan
aFnan
aFnan
aFnan
aFnan
aFnan
aFnan
aFnan
aFnan
aFnan
aFnan
aFnan
aFnan
aFnan
aFnan
aFnan
aFnan
aFnan
aFnan
aFnan
aFnan
aFnan
aFnan
aFnan
aFnan
aFnan
aFnan
aFnan
aFnan
aFnan
aFnan
aFnan
aFnan
aFnan
aFnan
aFnan
aFnan
aFnan
aFnan
aFnan
aFnan
aFnan
aFnan
aFnan
aFnan
aFnan
aFnan
aFnan
aFnan
aFnan
aF481.07
aF469.78
aF421.96
aF433.17
aF435.55
aF440.25
aF465.17
aF452.72
aF468.97
aF501.63
aF461.68
aF470.88
aF494.18
aF516.77
aF519.43
aF540.28
aF544.58
aF538.75
aF525.41
aF525.12
aF510.08
aF516.75
aF529.94
aF534.06
aF538.04
aF511.39
aF466.33
aF495.66
aF517.11
aF529.95
aF521.96
aF524.64
aF527.25
aF526.74
aF525.42
asS'2110015254'
p175
(lp176
Fnan
aFnan
aFnan
aFnan
aFnan
aFnan
aFnan
aFnan
aFnan
aFnan
aFnan
aFnan
aFnan
aFnan
aFnan
aFnan
aFnan
aFnan
aFnan
aFnan
aFnan
aFnan
aFnan
aFnan
aFnan
aFnan
aFnan
aFnan
aFnan
aFnan
aFnan
aFnan
aFnan
aFnan
aFnan
aFnan
aFnan
aFnan
aFnan
aFnan
aFnan
aFnan
aFnan
aFnan
aFnan
aFnan
aFnan
aFnan
aFnan
aFnan
aFnan
aFnan
aFnan
aFnan
aFnan
aFnan
aFnan
aFnan
aFnan
aFnan
aFnan
aFnan
aFnan
aFnan
aFnan
aFnan
aFnan
aFnan
aFnan
aFnan
aFnan
aFnan
aFnan
aFnan
aFnan
aFnan
aFnan
aFnan
aFnan
aFnan
aF477.28
aF464.82
aF421.73
aF433.57
aF436.81
aF440.55
aF463.93
aF445.67
aF464.64
aF504.38
aF468.81
aF476.08
aF494.26
aF518.04
aF522.71
aF537.03
aF540.26
aF540.09
aF527.11
aF528.9
aF507.68
aF512.47
aF527.66
aF535.19
aF538.06
aF510.46
aF469.47
aF497.82
aF516.85
aF532.04
aF521.25
aF520.92
aF527.6
aF527.29
aF521.0
asS'2110025442'
p177
(lp178
Fnan
aFnan
aFnan
aFnan
aFnan
aFnan
aFnan
aFnan
aFnan
aFnan
aFnan
aFnan
aFnan
aFnan
aFnan
aFnan
aFnan
aFnan
aFnan
aFnan
aFnan
aFnan
aFnan
aFnan
aFnan
aFnan
aFnan
aFnan
aFnan
aFnan
aFnan
aFnan
aFnan
aFnan
aFnan
aFnan
aFnan
aFnan
aFnan
aFnan
aFnan
aFnan
aFnan
aFnan
aFnan
aFnan
aFnan
aFnan
aFnan
aFnan
aFnan
aFnan
aFnan
aFnan
aFnan
aFnan
aFnan
aFnan
aFnan
aFnan
aFnan
aFnan
aFnan
aFnan
aFnan
aFnan
aFnan
aFnan
aFnan
aFnan
aFnan
aFnan
aFnan
aFnan
aFnan
aFnan
aFnan
aFnan
aFnan
aFnan
aF464.16
aF475.32
aF418.68
aF429.04
aF426.83
aF430.27
aF454.0
aF441.18
aF460.3
aF494.55
aF457.95
aF460.25
aF485.08
aF508.04
aF516.44
aF533.94
aF534.95
aF535.35
aF517.67
aF521.5
aF498.77
aF506.5
aF520.83
aF531.72
aF533.6
aF498.77
aF458.85
aF486.99
aF505.34
aF522.39
aF510.99
aF512.43
aF521.15
aF520.33
aF515.22
assS'Pac'
p179
(dp180
S'2110014988'
p181
(lp182
Fnan
aFnan
aFnan
aFnan
aFnan
aFnan
aFnan
aFnan
aFnan
aFnan
aFnan
aFnan
aFnan
aFnan
aFnan
aFnan
aFnan
aFnan
aFnan
aFnan
aFnan
aFnan
aFnan
aFnan
aFnan
aFnan
aFnan
aFnan
aFnan
aFnan
aFnan
aFnan
aFnan
aFnan
aFnan
aFnan
aFnan
aFnan
aFnan
aFnan
aFnan
aFnan
aFnan
aFnan
aFnan
aFnan
aFnan
aFnan
aFnan
aFnan
aFnan
aFnan
aFnan
aFnan
aFnan
aFnan
aFnan
aFnan
aFnan
aFnan
aFnan
aFnan
aFnan
aFnan
aFnan
aFnan
aFnan
aFnan
aFnan
aFnan
aFnan
aFnan
aFnan
aFnan
aFnan
aFnan
aFnan
aFnan
aFnan
aFnan
aF0.0
aF15.44
aF39.72
aF83.44
aF47.56
aF117.53
aF224.0
aF92.33
aF251.06
aF684.94
aF230.18
aF290.33
aF619.13
aF1174.06
aF1688.67
aF6458.35
aF6711.59
aF6213.28
aF3883.25
aF2928.0
aF809.12
aF818.94
aF1561.28
aF2913.71
aF6426.65
aF1288.12
aF286.39
aF637.44
aF1109.94
aF1924.53
aF1418.24
aF1429.83
aF1966.33
aF1829.63
aF1197.53
asS'2110015254'
p183
(lp184
Fnan
aFnan
aFnan
aFnan
aFnan
aFnan
aFnan
aFnan
aFnan
aFnan
aFnan
aFnan
aFnan
aFnan
aFnan
aFnan
aFnan
aFnan
aFnan
aFnan
aFnan
aFnan
aFnan
aFnan
aFnan
aFnan
aFnan
aFnan
aFnan
aFnan
aFnan
aFnan
aFnan
aFnan
aFnan
aFnan
aFnan
aFnan
aFnan
aFnan
aFnan
aFnan
aFnan
aFnan
aFnan
aFnan
aFnan
aFnan
aFnan
aFnan
aFnan
aFnan
aFnan
aFnan
aFnan
aFnan
aFnan
aFnan
aFnan
aFnan
aFnan
aFnan
aFnan
aFnan
aFnan
aFnan
aFnan
aFnan
aFnan
aFnan
aFnan
aFnan
aFnan
aFnan
aFnan
aFnan
aFnan
aFnan
aFnan
aFnan
aF0.0
aF21.5
aF42.18
aF84.24
aF48.33
aF124.44
aF224.31
aF96.61
aF268.28
aF693.25
aF241.72
aF287.47
aF651.81
aF1190.67
aF2000.33
aF6484.88
aF6819.06
aF6020.71
aF3747.24
aF2863.18
aF853.24
aF893.18
aF1656.65
aF2795.22
aF6524.0
aF1019.0
aF304.44
aF673.76
aF1170.83
aF1899.65
aF1416.71
aF1395.44
aF2036.0
aF1769.56
aF1293.71
asS'2110025442'
p185
(lp186
Fnan
aFnan
aFnan
aFnan
aFnan
aFnan
aFnan
aFnan
aFnan
aFnan
aFnan
aFnan
aFnan
aFnan
aFnan
aFnan
aFnan
aFnan
aFnan
aFnan
aFnan
aFnan
aFnan
aFnan
aFnan
aFnan
aFnan
aFnan
aFnan
aFnan
aFnan
aFnan
aFnan
aFnan
aFnan
aFnan
aFnan
aFnan
aFnan
aFnan
aFnan
aFnan
aFnan
aFnan
aFnan
aFnan
aFnan
aFnan
aFnan
aFnan
aFnan
aFnan
aFnan
aFnan
aFnan
aFnan
aFnan
aFnan
aFnan
aFnan
aFnan
aFnan
aFnan
aFnan
aFnan
aFnan
aFnan
aFnan
aFnan
aFnan
aFnan
aFnan
aFnan
aFnan
aFnan
aFnan
aFnan
aFnan
aFnan
aFnan
aF0.0
aF12.72
aF38.33
aF80.65
aF45.06
aF118.06
aF219.69
aF93.28
aF258.33
aF682.75
aF235.17
aF279.41
aF639.06
aF1158.82
aF1600.17
aF6564.53
aF6691.29
aF6175.83
aF3737.59
aF2968.41
aF808.41
aF838.35
aF1591.29
aF2827.89
aF6461.94
aF1231.88
aF285.78
aF653.71
aF1103.35
aF1863.28
aF1389.24
aF1371.33
aF1997.72
aF1729.81
aF1229.53
assS'SN'
p187
(dp188
S'2110014988'
p189
(lp190
Fnan
aFnan
aFnan
aFnan
aFnan
aFnan
aFnan
aFnan
aFnan
aFnan
aFnan
aFnan
aFnan
aFnan
aFnan
aFnan
aFnan
aFnan
aFnan
aFnan
aFnan
aFnan
aFnan
aFnan
aFnan
aFnan
aFnan
aFnan
aFnan
aFnan
aFnan
aFnan
aFnan
aFnan
aFnan
aFnan
aFnan
aFnan
aFnan
aFnan
aFnan
aFnan
aFnan
aFnan
aFnan
aFnan
aFnan
aFnan
aFnan
aFnan
aFnan
aFnan
aFnan
aFnan
aFnan
aFnan
aFnan
aFnan
aFnan
aFnan
aFnan
aFnan
aFnan
aFnan
aFnan
aFnan
aFnan
aFnan
aFnan
aFnan
aFnan
aFnan
aFnan
aFnan
aFnan
aFnan
aFnan
aFnan
aFnan
aFnan
aF2110014988.0
aF2110014988.0
aF2110014988.0
aF2110014988.0
aF2110014988.0
aF2110014988.0
aF2110014988.0
aF2110014988.0
aF2110014988.0
aF2110014988.0
aF2110014988.0
aF2110014988.0
aF2110014988.0
aF2110014988.0
aF2110014988.0
aF2110014988.0
aF2110014988.0
aF2110014988.0
aF2110014988.0
aF2110014988.0
aF2110014988.0
aF2110014988.0
aF2110014988.0
aF2110014988.0
aF2110014988.0
aF2110014988.0
aF2110014988.0
aF2110014988.0
aF2110014988.0
aF2110014988.0
aF2110014988.0
aF2110014988.0
aF2110014988.0
aF2110014988.0
aF2110014988.0
asS'2110015254'
p191
(lp192
Fnan
aFnan
aFnan
aFnan
aFnan
aFnan
aFnan
aFnan
aFnan
aFnan
aFnan
aFnan
aFnan
aFnan
aFnan
aFnan
aFnan
aFnan
aFnan
aFnan
aFnan
aFnan
aFnan
aFnan
aFnan
aFnan
aFnan
aFnan
aFnan
aFnan
aFnan
aFnan
aFnan
aFnan
aFnan
aFnan
aFnan
aFnan
aFnan
aFnan
aFnan
aFnan
aFnan
aFnan
aFnan
aFnan
aFnan
aFnan
aFnan
aFnan
aFnan
aFnan
aFnan
aFnan
aFnan
aFnan
aFnan
aFnan
aFnan
aFnan
aFnan
aFnan
aFnan
aFnan
aFnan
aFnan
aFnan
aFnan
aFnan
aFnan
aFnan
aFnan
aFnan
aFnan
aFnan
aFnan
aFnan
aFnan
aFnan
aFnan
aF2110015254.0
aF2110015254.0
aF2110015254.0
aF2110015254.0
aF2110015254.0
aF2110015254.0
aF2110015254.0
aF2110015254.0
aF2110015254.0
aF2110015254.0
aF2110015254.0
aF2110015254.0
aF2110015254.0
aF2110015254.0
aF2110015254.0
aF2110015254.0
aF2110015254.0
aF2110015254.0
aF2110015254.0
aF2110015254.0
aF2110015254.0
aF2110015254.0
aF2110015254.0
aF2110015254.0
aF2110015254.0
aF2110015254.0
aF2110015254.0
aF2110015254.0
aF2110015254.0
aF2110015254.0
aF2110015254.0
aF2110015254.0
aF2110015254.0
aF2110015254.0
aF2110015254.0
asS'2110025442'
p193
(lp194
Fnan
aFnan
aFnan
aFnan
aFnan
aFnan
aFnan
aFnan
aFnan
aFnan
aFnan
aFnan
aFnan
aFnan
aFnan
aFnan
aFnan
aFnan
aFnan
aFnan
aFnan
aFnan
aFnan
aFnan
aFnan
aFnan
aFnan
aFnan
aFnan
aFnan
aFnan
aFnan
aFnan
aFnan
aFnan
aFnan
aFnan
aFnan
aFnan
aFnan
aFnan
aFnan
aFnan
aFnan
aFnan
aFnan
aFnan
aFnan
aFnan
aFnan
aFnan
aFnan
aFnan
aFnan
aFnan
aFnan
aFnan
aFnan
aFnan
aFnan
aFnan
aFnan
aFnan
aFnan
aFnan
aFnan
aFnan
aFnan
aFnan
aFnan
aFnan
aFnan
aFnan
aFnan
aFnan
aFnan
aFnan
aFnan
aFnan
aFnan
aF2110025442.0
aF2110025442.0
aF2110025442.0
aF2110025442.0
aF2110025442.0
aF2110025442.0
aF2110025442.0
aF2110025442.0
aF2110025442.0
aF2110025442.0
aF2110025442.0
aF2110025442.0
aF2110025442.0
aF2110025442.0
aF2110025442.0
aF2110025442.0
aF2110025442.0
aF2110025442.0
aF2110025442.0
aF2110025442.0
aF2110025442.0
aF2110025442.0
aF2110025442.0
aF2110025442.0
aF2110025442.0
aF2110025442.0
aF2110025442.0
aF2110025442.0
aF2110025442.0
aF2110025442.0
aF2110025442.0
aF2110025442.0
aF2110025442.0
aF2110025442.0
aF2110025442.0
assS'PRdaily'
p195
F97.1
sS'Error'
p196
(dp197
S'2110014988'
p198
(lp199
Fnan
aFnan
aFnan
aFnan
aFnan
aFnan
aFnan
aFnan
aFnan
aFnan
aFnan
aFnan
aFnan
aFnan
aFnan
aFnan
aFnan
aFnan
aFnan
aFnan
aFnan
aFnan
aFnan
aFnan
aFnan
aFnan
aFnan
aFnan
aFnan
aFnan
aFnan
aFnan
aFnan
aFnan
aFnan
aFnan
aFnan
aFnan
aFnan
aFnan
aFnan
aFnan
aFnan
aFnan
aFnan
aFnan
aFnan
aFnan
aFnan
aFnan
aFnan
aFnan
aFnan
aFnan
aFnan
aFnan
aFnan
aFnan
aFnan
aFnan
aFnan
aFnan
aFnan
aFnan
aFnan
aFnan
aFnan
aFnan
aFnan
aFnan
aFnan
aFnan
aFnan
aFnan
aFnan
aFnan
aFnan
aFnan
aFnan
aFnan
aF0.0
aF0.0
aF0.0
aF0.0
aF0.0
aF0.0
aF0.0
aF0.0
aF0.0
aF0.0
aF0.0
aF0.0
aF0.0
aF0.0
aF0.0
aF0.0
aF0.0
aF0.0
aF0.0
aF0.0
aF0.0
aF0.0
aF0.0
aF0.0
aF0.0
aF0.0
aF0.0
aF0.0
aF0.0
aF0.0
aF0.0
aF0.0
aF0.0
aF0.0
aF0.0
asS'2110015254'
p200
(lp201
Fnan
aFnan
aFnan
aFnan
aFnan
aFnan
aFnan
aFnan
aFnan
aFnan
aFnan
aFnan
aFnan
aFnan
aFnan
aFnan
aFnan
aFnan
aFnan
aFnan
aFnan
aFnan
aFnan
aFnan
aFnan
aFnan
aFnan
aFnan
aFnan
aFnan
aFnan
aFnan
aFnan
aFnan
aFnan
aFnan
aFnan
aFnan
aFnan
aFnan
aFnan
aFnan
aFnan
aFnan
aFnan
aFnan
aFnan
aFnan
aFnan
aFnan
aFnan
aFnan
aFnan
aFnan
aFnan
aFnan
aFnan
aFnan
aFnan
aFnan
aFnan
aFnan
aFnan
aFnan
aFnan
aFnan
aFnan
aFnan
aFnan
aFnan
aFnan
aFnan
aFnan
aFnan
aFnan
aFnan
aFnan
aFnan
aFnan
aFnan
aF0.0
aF0.0
aF0.0
aF0.0
aF0.0
aF0.0
aF0.0
aF0.0
aF0.0
aF0.0
aF0.0
aF0.0
aF0.0
aF0.0
aF0.0
aF0.0
aF0.0
aF0.0
aF0.0
aF0.0
aF0.0
aF0.0
aF0.0
aF0.0
aF0.0
aF0.0
aF0.0
aF0.0
aF0.0
aF0.0
aF0.0
aF0.0
aF0.0
aF0.0
aF0.0
asS'2110025442'
p202
(lp203
Fnan
aFnan
aFnan
aFnan
aFnan
aFnan
aFnan
aFnan
aFnan
aFnan
aFnan
aFnan
aFnan
aFnan
aFnan
aFnan
aFnan
aFnan
aFnan
aFnan
aFnan
aFnan
aFnan
aFnan
aFnan
aFnan
aFnan
aFnan
aFnan
aFnan
aFnan
aFnan
aFnan
aFnan
aFnan
aFnan
aFnan
aFnan
aFnan
aFnan
aFnan
aFnan
aFnan
aFnan
aFnan
aFnan
aFnan
aFnan
aFnan
aFnan
aFnan
aFnan
aFnan
aFnan
aFnan
aFnan
aFnan
aFnan
aFnan
aFnan
aFnan
aFnan
aFnan
aFnan
aFnan
aFnan
aFnan
aFnan
aFnan
aFnan
aFnan
aFnan
aFnan
aFnan
aFnan
aFnan
aFnan
aFnan
aFnan
aFnan
aF0.0
aF0.0
aF0.0
aF0.0
aF0.0
aF0.0
aF0.0
aF0.0
aF0.0
aF0.0
aF0.0
aF0.0
aF0.0
aF0.0
aF0.0
aF0.0
aF0.0
aF0.0
aF0.0
aF0.0
aF0.0
aF0.0
aF0.0
aF0.0
aF0.0
aF0.0
aF0.0
aF0.0
aF0.0
aF0.0
aF0.0
aF0.0
aF0.0
aF0.0
aF0.0
assS'Edaily'
p204
F14.4
sS'Pdc'
p205
(dp206
S'2110014988'
p207
(lp208
Fnan
aFnan
aFnan
aFnan
aFnan
aFnan
aFnan
aFnan
aFnan
aFnan
aFnan
aFnan
aFnan
aFnan
aFnan
aFnan
aFnan
aFnan
aFnan
aFnan
aFnan
aFnan
aFnan
aFnan
aFnan
aFnan
aFnan
aFnan
aFnan
aFnan
aFnan
aFnan
aFnan
aFnan
aFnan
aFnan
aFnan
aFnan
aFnan
aFnan
aFnan
aFnan
aFnan
aFnan
aFnan
aFnan
aFnan
aFnan
aFnan
aFnan
aFnan
aFnan
aFnan
aFnan
aFnan
aFnan
aFnan
aFnan
aFnan
aFnan
aFnan
aFnan
aFnan
aFnan
aFnan
aFnan
aFnan
aFnan
aFnan
aFnan
aFnan
aFnan
aFnan
aFnan
aFnan
aFnan
aFnan
aFnan
aFnan
aFnan
aF7.56
aF28.33
aF57.72
aF90.38
aF60.56
aF116.82
aF189.75
aF97.78
aF208.82
aF522.41
aF196.06
aF239.89
aF480.53
aF893.22
aF1296.78
aF4878.94
aF5101.18
aF4742.0
aF2944.13
aF2182.44
aF613.82
aF624.0
aF1187.44
aF2150.47
aF4906.65
aF965.0
aF238.94
aF489.38
aF840.11
aF1460.24
aF1074.47
aF1082.78
aF1496.61
aF1388.5
aF910.82
asS'2110015254'
p209
(lp210
Fnan
aFnan
aFnan
aFnan
aFnan
aFnan
aFnan
aFnan
aFnan
aFnan
aFnan
aFnan
aFnan
aFnan
aFnan
aFnan
aFnan
aFnan
aFnan
aFnan
aFnan
aFnan
aFnan
aFnan
aFnan
aFnan
aFnan
aFnan
aFnan
aFnan
aFnan
aFnan
aFnan
aFnan
aFnan
aFnan
aFnan
aFnan
aFnan
aFnan
aFnan
aFnan
aFnan
aFnan
aFnan
aFnan
aFnan
aFnan
aFnan
aFnan
aFnan
aFnan
aFnan
aFnan
aFnan
aFnan
aFnan
aFnan
aFnan
aFnan
aFnan
aFnan
aFnan
aFnan
aFnan
aFnan
aFnan
aFnan
aFnan
aFnan
aFnan
aFnan
aFnan
aFnan
aFnan
aFnan
aFnan
aFnan
aFnan
aFnan
aF10.0
aF34.28
aF57.35
aF89.18
aF61.44
aF119.44
aF188.94
aF99.0
aF221.28
aF527.44
aF202.22
aF235.18
aF502.5
aF905.72
aF1538.33
aF5051.25
aF5315.11
aF4631.35
aF2883.53
aF2189.53
aF645.88
aF674.35
aF1255.06
aF2062.0
aF4952.24
aF770.38
aF247.0
aF515.94
aF888.17
aF1434.0
aF1072.59
aF1058.67
aF1546.0
aF1337.88
aF976.06
asS'2110025442'
p211
(lp212
Fnan
aFnan
aFnan
aFnan
aFnan
aFnan
aFnan
aFnan
aFnan
aFnan
aFnan
aFnan
aFnan
aFnan
aFnan
aFnan
aFnan
aFnan
aFnan
aFnan
aFnan
aFnan
aFnan
aFnan
aFnan
aFnan
aFnan
aFnan
aFnan
aFnan
aFnan
aFnan
aFnan
aFnan
aFnan
aFnan
aFnan
aFnan
aFnan
aFnan
aFnan
aFnan
aFnan
aFnan
aFnan
aFnan
aFnan
aFnan
aFnan
aFnan
aFnan
aFnan
aFnan
aFnan
aFnan
aFnan
aFnan
aFnan
aFnan
aFnan
aFnan
aFnan
aFnan
aFnan
aFnan
aFnan
aFnan
aFnan
aFnan
aFnan
aFnan
aFnan
aFnan
aFnan
aFnan
aFnan
aFnan
aFnan
aFnan
aFnan
aF3.0
aF17.67
aF46.39
aF77.59
aF49.35
aF103.53
aF173.31
aF85.11
aF201.5
aF508.19
aF185.39
aF216.53
aF478.13
aF862.35
aF1241.56
aF4904.82
aF5060.47
aF4645.5
aF2810.76
aF2259.06
aF599.88
aF622.18
aF1197.47
aF2113.0
aF5054.31
aF922.71
aF223.33
aF485.24
aF818.24
aF1395.61
aF1038.35
aF1027.33
aF1498.33
aF1292.06
aF920.82
assS'Idc'
p213
(dp214
S'2110014988'
p215
(lp216
Fnan
aFnan
aFnan
aFnan
aFnan
aFnan
aFnan
aFnan
aFnan
aFnan
aFnan
aFnan
aFnan
aFnan
aFnan
aFnan
aFnan
aFnan
aFnan
aFnan
aFnan
aFnan
aFnan
aFnan
aFnan
aFnan
aFnan
aFnan
aFnan
aFnan
aFnan
aFnan
aFnan
aFnan
aFnan
aFnan
aFnan
aFnan
aFnan
aFnan
aFnan
aFnan
aFnan
aFnan
aFnan
aFnan
aFnan
aFnan
aFnan
aFnan
aFnan
aFnan
aFnan
aFnan
aFnan
aFnan
aFnan
aFnan
aFnan
aFnan
aFnan
aFnan
aFnan
aFnan
aFnan
aFnan
aFnan
aFnan
aFnan
aFnan
aFnan
aFnan
aFnan
aFnan
aFnan
aFnan
aFnan
aFnan
aFnan
aFnan
aF0.02
aF0.07
aF0.14
aF0.21
aF0.14
aF0.27
aF0.41
aF0.22
aF0.44
aF1.04
aF0.42
aF0.5
aF0.96
aF1.73
aF2.5
aF9.04
aF9.3
aF8.76
aF5.49
aF4.16
aF1.2
aF1.21
aF2.23
aF4.03
aF9.01
aF1.85
aF0.51
aF0.98
aF1.62
aF2.75
aF2.06
aF2.06
aF2.84
aF2.63
aF1.73
asS'2110015254'
p217
(lp218
Fnan
aFnan
aFnan
aFnan
aFnan
aFnan
aFnan
aFnan
aFnan
aFnan
aFnan
aFnan
aFnan
aFnan
aFnan
aFnan
aFnan
aFnan
aFnan
aFnan
aFnan
aFnan
aFnan
aFnan
aFnan
aFnan
aFnan
aFnan
aFnan
aFnan
aFnan
aFnan
aFnan
aFnan
aFnan
aFnan
aFnan
aFnan
aFnan
aFnan
aFnan
aFnan
aFnan
aFnan
aFnan
aFnan
aFnan
aFnan
aFnan
aFnan
aFnan
aFnan
aFnan
aFnan
aFnan
aFnan
aFnan
aFnan
aFnan
aFnan
aFnan
aFnan
aFnan
aFnan
aFnan
aFnan
aFnan
aFnan
aFnan
aFnan
aFnan
aFnan
aFnan
aFnan
aFnan
aFnan
aFnan
aFnan
aFnan
aFnan
aF0.02
aF0.08
aF0.14
aF0.21
aF0.14
aF0.27
aF0.41
aF0.22
aF0.47
aF1.04
aF0.43
aF0.49
aF1.0
aF1.75
aF2.94
aF9.33
aF9.77
aF8.53
aF5.36
aF4.13
aF1.27
aF1.32
aF2.37
aF3.85
aF9.11
aF1.51
aF0.52
aF1.03
aF1.71
aF2.7
aF2.06
aF2.03
aF2.93
aF2.53
aF1.87
asS'2110025442'
p219
(lp220
Fnan
aFnan
aFnan
aFnan
aFnan
aFnan
aFnan
aFnan
aFnan
aFnan
aFnan
aFnan
aFnan
aFnan
aFnan
aFnan
aFnan
aFnan
aFnan
aFnan
aFnan
aFnan
aFnan
aFnan
aFnan
aFnan
aFnan
aFnan
aFnan
aFnan
aFnan
aFnan
aFnan
aFnan
aFnan
aFnan
aFnan
aFnan
aFnan
aFnan
aFnan
aFnan
aFnan
aFnan
aFnan
aFnan
aFnan
aFnan
aFnan
aFnan
aFnan
aFnan
aFnan
aFnan
aFnan
aFnan
aFnan
aFnan
aFnan
aFnan
aFnan
aFnan
aFnan
aFnan
aFnan
aFnan
aFnan
aFnan
aFnan
aFnan
aFnan
aFnan
aFnan
aFnan
aFnan
aFnan
aFnan
aFnan
aFnan
aFnan
aF0.01
aF0.04
aF0.11
aF0.18
aF0.12
aF0.24
aF0.38
aF0.19
aF0.44
aF1.03
aF0.4
aF0.47
aF0.97
aF1.7
aF2.41
aF9.15
aF9.35
aF8.61
aF5.31
aF4.33
aF1.2
aF1.23
aF2.29
aF3.97
aF9.36
aF1.84
aF0.48
aF0.99
aF1.62
aF2.67
aF2.03
aF2.0
aF2.87
aF2.48
aF1.79
assS'Mode'
p221
(dp222
S'2110014988'
p223
(lp224
Fnan
aFnan
aFnan
aFnan
aFnan
aFnan
aFnan
aFnan
aFnan
aFnan
aFnan
aFnan
aFnan
aFnan
aFnan
aFnan
aFnan
aFnan
aFnan
aFnan
aFnan
aFnan
aFnan
aFnan
aFnan
aFnan
aFnan
aFnan
aFnan
aFnan
aFnan
aFnan
aFnan
aFnan
aFnan
aFnan
aFnan
aFnan
aFnan
aFnan
aFnan
aFnan
aFnan
aFnan
aFnan
aFnan
aFnan
aFnan
aFnan
aFnan
aFnan
aFnan
aFnan
aFnan
aFnan
aFnan
aFnan
aFnan
aFnan
aFnan
aFnan
aFnan
aFnan
aFnan
aFnan
aFnan
aFnan
aFnan
aFnan
aFnan
aFnan
aFnan
aFnan
aFnan
aFnan
aFnan
aFnan
aFnan
aFnan
aFnan
aF7.0
aF1.0
aF1.0
aF1.0
aF1.0
aF1.0
aF1.0
aF1.0
aF1.0
aF1.0
aF1.0
aF1.0
aF1.0
aF1.0
aF1.0
aF1.0
aF1.0
aF1.0
aF1.0
aF1.0
aF1.0
aF1.0
aF1.0
aF1.0
aF1.0
aF1.0
aF1.0
aF1.0
aF1.0
aF1.0
aF1.0
aF1.0
aF1.0
aF1.0
aF1.0
asS'2110015254'
p225
(lp226
Fnan
aFnan
aFnan
aFnan
aFnan
aFnan
aFnan
aFnan
aFnan
aFnan
aFnan
aFnan
aFnan
aFnan
aFnan
aFnan
aFnan
aFnan
aFnan
aFnan
aFnan
aFnan
aFnan
aFnan
aFnan
aFnan
aFnan
aFnan
aFnan
aFnan
aFnan
aFnan
aFnan
aFnan
aFnan
aFnan
aFnan
aFnan
aFnan
aFnan
aFnan
aFnan
aFnan
aFnan
aFnan
aFnan
aFnan
aFnan
aFnan
aFnan
aFnan
aFnan
aFnan
aFnan
aFnan
aFnan
aFnan
aFnan
aFnan
aFnan
aFnan
aFnan
aFnan
aFnan
aFnan
aFnan
aFnan
aFnan
aFnan
aFnan
aFnan
aFnan
aFnan
aFnan
aFnan
aFnan
aFnan
aFnan
aFnan
aFnan
aF7.0
aF1.0
aF1.0
aF1.0
aF1.0
aF1.0
aF1.0
aF1.0
aF1.0
aF1.0
aF1.0
aF1.0
aF1.0
aF1.0
aF1.0
aF1.0
aF1.0
aF1.0
aF1.0
aF1.0
aF1.0
aF1.0
aF1.0
aF1.0
aF1.0
aF1.0
aF1.0
aF1.0
aF1.0
aF1.0
aF1.0
aF1.0
aF1.0
aF1.0
aF1.0
asS'2110025442'
p227
(lp228
Fnan
aFnan
aFnan
aFnan
aFnan
aFnan
aFnan
aFnan
aFnan
aFnan
aFnan
aFnan
aFnan
aFnan
aFnan
aFnan
aFnan
aFnan
aFnan
aFnan
aFnan
aFnan
aFnan
aFnan
aFnan
aFnan
aFnan
aFnan
aFnan
aFnan
aFnan
aFnan
aFnan
aFnan
aFnan
aFnan
aFnan
aFnan
aFnan
aFnan
aFnan
aFnan
aFnan
aFnan
aFnan
aFnan
aFnan
aFnan
aFnan
aFnan
aFnan
aFnan
aFnan
aFnan
aFnan
aFnan
aFnan
aFnan
aFnan
aFnan
aFnan
aFnan
aFnan
aFnan
aFnan
aFnan
aFnan
aFnan
aFnan
aFnan
aFnan
aFnan
aFnan
aFnan
aFnan
aFnan
aFnan
aFnan
aFnan
aFnan
aF7.0
aF1.0
aF1.0
aF1.0
aF1.0
aF1.0
aF1.0
aF1.0
aF1.0
aF1.0
aF1.0
aF1.0
aF1.0
aF1.0
aF1.0
aF1.0
aF1.0
aF1.0
aF1.0
aF1.0
aF1.0
aF1.0
aF1.0
aF1.0
aF1.0
aF1.0
aF1.0
aF1.0
aF1.0
aF1.0
aF1.0
aF1.0
aF1.0
aF1.0
aF1.0
asss.