(dp0
cdatetime
date
p1
(S'\x07\xdc\n\x03'
p2
tp3
Rp4
(dp5
S'Irradiance'
p6
(dp7
S'18054'
p8
(lp9
F0.0
aF0.0
aF0.0
aF0.03
aF0.0
aF0.0
aF0.0
aF0.0
aF0.0
aF0.0
aF0.0
aF0.0
aF0.0
aF0.0
aF0.0
aF0.0
aF0.0
aF0.0
aF0.0
aF0.0
aF0.0
aF0.0
aF0.0
aF0.0
aF0.0
aF0.0
aF0.0
aF0.0
aF0.0
aF0.0
aF0.0
aF6.42
aF53.82
aF294.89
aF413.53
aF480.97
aF639.73
aF425.61
aF504.11
aF534.13
aF549.57
aF529.05
aF348.36
assS'Pdc_b'
p10
(dp11
S'2110040451'
p12
(lp13
Fnan
aFnan
aFnan
aFnan
aFnan
aFnan
aFnan
aFnan
aFnan
aFnan
aFnan
aFnan
aFnan
aFnan
aFnan
aFnan
aFnan
aFnan
aFnan
aFnan
aFnan
aFnan
aFnan
aFnan
aFnan
aFnan
aFnan
aFnan
aFnan
aFnan
aFnan
aF25.77
aF128.53
aF339.55
aF493.46
aF561.03
aF781.42
aF808.26
aF876.05
aF1093.72
aF1356.94
aF1207.0
aF1140.44
asS'2110019971'
p14
(lp15
Fnan
aFnan
aFnan
aFnan
aFnan
aFnan
aFnan
aFnan
aFnan
aFnan
aFnan
aFnan
aFnan
aFnan
aFnan
aFnan
aFnan
aFnan
aFnan
aFnan
aFnan
aFnan
aFnan
aFnan
aFnan
aFnan
aFnan
aFnan
aFnan
aFnan
aFnan
aF26.91
aF91.55
aF458.87
aF931.1
aF1131.81
aF1631.89
aF1243.24
aF1634.39
aF1859.66
aF2134.3
aF2201.53
aF1550.53
asS'2110023534'
p16
(lp17
Fnan
aFnan
aFnan
aFnan
aFnan
aFnan
aFnan
aFnan
aFnan
aFnan
aFnan
aFnan
aFnan
aFnan
aFnan
aFnan
aFnan
aFnan
aFnan
aFnan
aFnan
aFnan
aFnan
aFnan
aFnan
aFnan
aFnan
aFnan
aFnan
aFnan
aFnan
aF3.94
aF3.84
aF15.56
aF957.24
aF2465.7
aF3068.11
aF2025.29
aF2131.32
aF2330.47
aF2531.05
aF2405.61
aF1544.33
asS'2110006770'
p18
(lp19
Fnan
aFnan
aFnan
aFnan
aFnan
aFnan
aFnan
aFnan
aFnan
aFnan
aFnan
aFnan
aFnan
aFnan
aFnan
aFnan
aFnan
aFnan
aFnan
aFnan
aFnan
aFnan
aFnan
aFnan
aFnan
aFnan
aFnan
aFnan
aFnan
aFnan
aFnan
aF26.81
aF370.15
aF2265.97
aF2882.03
aF2851.24
aF3620.86
aF2358.74
aF2488.18
aF2745.55
aF2673.78
aF2714.47
aF1774.46
asS'2110005499'
p20
(lp21
Fnan
aFnan
aFnan
aFnan
aFnan
aFnan
aFnan
aFnan
aFnan
aFnan
aFnan
aFnan
aFnan
aFnan
aFnan
aFnan
aFnan
aFnan
aFnan
aFnan
aFnan
aFnan
aFnan
aFnan
aFnan
aFnan
aFnan
aFnan
aFnan
aFnan
aFnan
aF18.85
aF317.13
aF2046.21
aF2762.08
aF2863.54
aF3523.55
aF2346.14
aF2419.34
aF2652.82
aF2663.95
aF3036.95
aF1819.18
assS'Vdc_b'
p22
(dp23
S'2110040451'
p24
(lp25
Fnan
aFnan
aFnan
aFnan
aFnan
aFnan
aFnan
aFnan
aFnan
aFnan
aFnan
aFnan
aFnan
aFnan
aFnan
aFnan
aFnan
aFnan
aFnan
aFnan
aFnan
aFnan
aFnan
aFnan
aFnan
aFnan
aFnan
aFnan
aFnan
aFnan
aFnan
aF459.48
aF494.16
aF527.72
aF547.18
aF549.72
aF552.84
aF543.01
aF557.81
aF550.29
aF560.47
aF552.97
aF546.75
asS'2110019971'
p26
(lp27
Fnan
aFnan
aFnan
aFnan
aFnan
aFnan
aFnan
aFnan
aFnan
aFnan
aFnan
aFnan
aFnan
aFnan
aFnan
aFnan
aFnan
aFnan
aFnan
aFnan
aFnan
aFnan
aFnan
aFnan
aFnan
aFnan
aFnan
aFnan
aFnan
aFnan
aFnan
aF439.12
aF479.55
aF543.3
aF559.39
aF553.03
aF562.31
aF549.3
aF554.43
aF557.83
aF560.17
aF549.22
aF550.58
asS'2110023534'
p28
(lp29
Fnan
aFnan
aFnan
aFnan
aFnan
aFnan
aFnan
aFnan
aFnan
aFnan
aFnan
aFnan
aFnan
aFnan
aFnan
aFnan
aFnan
aFnan
aFnan
aFnan
aFnan
aFnan
aFnan
aFnan
aFnan
aFnan
aFnan
aFnan
aFnan
aFnan
aFnan
aF537.6
aF597.25
aF665.68
aF628.19
aF567.35
aF560.87
aF552.5
aF553.19
aF558.53
aF554.76
aF548.15
aF545.45
asS'2110006770'
p30
(lp31
Fnan
aFnan
aFnan
aFnan
aFnan
aFnan
aFnan
aFnan
aFnan
aFnan
aFnan
aFnan
aFnan
aFnan
aFnan
aFnan
aFnan
aFnan
aFnan
aFnan
aFnan
aFnan
aFnan
aFnan
aFnan
aFnan
aFnan
aFnan
aFnan
aFnan
aFnan
aF500.37
aF564.21
aF618.23
aF614.97
aF622.61
aF607.98
aF597.95
aF606.05
aF600.51
aF613.75
aF600.66
aF610.15
asS'2110005499'
p32
(lp33
Fnan
aFnan
aFnan
aFnan
aFnan
aFnan
aFnan
aFnan
aFnan
aFnan
aFnan
aFnan
aFnan
aFnan
aFnan
aFnan
aFnan
aFnan
aFnan
aFnan
aFnan
aFnan
aFnan
aFnan
aFnan
aFnan
aFnan
aFnan
aFnan
aFnan
aFnan
aF564.45
aF543.68
aF567.35
aF602.39
aF624.27
aF606.08
aF593.94
aF609.03
aF602.14
aF607.4
aF595.17
aF599.74
assS'Tambient'
p34
(dp35
S'18054'
p36
(lp37
F6.79
aF6.91
aF7.3
aF7.73
aF8.16
aF8.03
aF8.03
aF7.61
aF7.39
aF7.2
aF7.04
aF6.81
aF6.78
aF6.93
aF6.95
aF6.91
aF7.62
aF8.45
aF8.6
aF8.7
aF8.79
aF8.82
aF8.68
aF8.48
aF8.33
aF8.48
aF8.43
aF8.38
aF8.36
aF8.52
aF8.56
aF8.02
aF7.87
aF9.12
aF10.44
aF10.73
aF11.14
aF10.94
aF9.86
aF10.02
aF9.79
aF10.08
aF10.05
assS'Clock'
p38
(dp39
S'000'
p40
(lp41
S'00:00'
p42
aS'00:15'
p43
aS'00:30'
p44
aS'00:45'
p45
aS'01:00'
p46
aS'01:15'
p47
aS'01:30'
p48
aS'01:45'
p49
aS'02:00'
p50
aS'02:15'
p51
aS'02:30'
p52
aS'02:45'
p53
aS'03:00'
p54
aS'03:15'
p55
aS'03:30'
p56
aS'03:45'
p57
aS'04:00'
p58
aS'04:15'
p59
aS'04:30'
p60
aS'04:45'
p61
aS'05:00'
p62
aS'05:15'
p63
aS'05:30'
p64
aS'05:45'
p65
aS'06:00'
p66
aS'06:15'
p67
aS'06:30'
p68
aS'06:45'
p69
aS'07:00'
p70
aS'07:15'
p71
aS'07:30'
p72
aS'07:45'
p73
aS'08:00'
p74
aS'08:15'
p75
aS'08:30'
p76
aS'08:45'
p77
aS'09:00'
p78
aS'09:15'
p79
aS'09:30'
p80
aS'09:45'
p81
aS'10:00'
p82
aS'10:15'
p83
aS'10:30'
p84
assS'Idc_b'
p85
(dp86
S'2110040451'
p87
(lp88
Fnan
aFnan
aFnan
aFnan
aFnan
aFnan
aFnan
aFnan
aFnan
aFnan
aFnan
aFnan
aFnan
aFnan
aFnan
aFnan
aFnan
aFnan
aFnan
aFnan
aFnan
aFnan
aFnan
aFnan
aFnan
aFnan
aFnan
aFnan
aFnan
aFnan
aFnan
aF0.06
aF0.26
aF0.64
aF0.91
aF1.03
aF1.41
aF1.48
aF1.58
aF2.01
aF2.43
aF2.2
aF2.07
asS'2110019971'
p89
(lp90
Fnan
aFnan
aFnan
aFnan
aFnan
aFnan
aFnan
aFnan
aFnan
aFnan
aFnan
aFnan
aFnan
aFnan
aFnan
aFnan
aFnan
aFnan
aFnan
aFnan
aFnan
aFnan
aFnan
aFnan
aFnan
aFnan
aFnan
aFnan
aFnan
aFnan
aFnan
aF0.06
aF0.19
aF0.84
aF1.67
aF2.04
aF2.9
aF2.23
aF2.92
aF3.31
aF3.78
aF3.98
aF2.8
asS'2110023534'
p91
(lp92
Fnan
aFnan
aFnan
aFnan
aFnan
aFnan
aFnan
aFnan
aFnan
aFnan
aFnan
aFnan
aFnan
aFnan
aFnan
aFnan
aFnan
aFnan
aFnan
aFnan
aFnan
aFnan
aFnan
aFnan
aFnan
aFnan
aFnan
aFnan
aFnan
aFnan
aFnan
aF0.01
aF0.01
aF0.02
aF1.69
aF4.36
aF5.46
aF3.62
aF3.82
aF4.16
aF4.53
aF4.36
aF2.81
asS'2110006770'
p93
(lp94
Fnan
aFnan
aFnan
aFnan
aFnan
aFnan
aFnan
aFnan
aFnan
aFnan
aFnan
aFnan
aFnan
aFnan
aFnan
aFnan
aFnan
aFnan
aFnan
aFnan
aFnan
aFnan
aFnan
aFnan
aFnan
aFnan
aFnan
aFnan
aFnan
aFnan
aFnan
aF0.06
aF0.63
aF3.66
aF4.69
aF4.6
aF5.95
aF3.9
aF4.08
aF4.55
aF4.33
aF4.48
aF2.91
asS'2110005499'
p95
(lp96
Fnan
aFnan
aFnan
aFnan
aFnan
aFnan
aFnan
aFnan
aFnan
aFnan
aFnan
aFnan
aFnan
aFnan
aFnan
aFnan
aFnan
aFnan
aFnan
aFnan
aFnan
aFnan
aFnan
aFnan
aFnan
aFnan
aFnan
aFnan
aFnan
aFnan
aFnan
aF0.04
aF0.58
aF3.59
aF4.58
aF4.6
aF5.81
aF3.91
aF3.94
aF4.4
aF4.35
aF5.08
aF3.02
assS'Tmodule'
p97
(dp98
S'18054'
p99
(lp100
F4.12
aF5.0
aF5.76
aF6.22
aF6.6
aF6.36
aF6.39
aF5.46
aF5.43
aF5.76
aF5.55
aF5.53
aF5.67
aF5.75
aF5.57
aF5.39
aF5.17
aF5.9
aF6.24
aF6.4
aF6.7
aF6.81
aF6.84
aF6.74
aF6.51
aF6.56
aF6.39
aF6.23
aF6.08
aF6.37
aF6.68
aF6.61
aF6.86
aF9.43
aF11.55
aF10.97
aF12.17
aF12.65
aF10.93
aF11.78
aF10.72
aF11.67
aF10.36
assS'En_meter'
p101
(dp102
S'2110040451'
p103
(lp104
Fnan
aFnan
aFnan
aFnan
aFnan
aFnan
aFnan
aFnan
aFnan
aFnan
aFnan
aFnan
aFnan
aFnan
aFnan
aFnan
aFnan
aFnan
aFnan
aFnan
aFnan
aFnan
aFnan
aFnan
aFnan
aFnan
aFnan
aFnan
aFnan
aFnan
aFnan
aF14892.37
aF14892.55
aF14893.66
aF14895.11
aF14896.53
aF14898.45
aF14899.9
aF14901.11
aF14902.77
aF14904.47
aF14906.14
aF14907.43
asS'2110019971'
p105
(lp106
Fnan
aFnan
aFnan
aFnan
aFnan
aFnan
aFnan
aFnan
aFnan
aFnan
aFnan
aFnan
aFnan
aFnan
aFnan
aFnan
aFnan
aFnan
aFnan
aFnan
aFnan
aFnan
aFnan
aFnan
aFnan
aFnan
aFnan
aFnan
aFnan
aFnan
aFnan
aF16250.85
aF16250.94
aF16251.64
aF16253.41
aF16255.2
aF16257.6
aF16259.26
aF16261.13
aF16263.17
aF16265.31
aF16267.59
aF16269.02
asS'2110023534'
p107
(lp108
Fnan
aFnan
aFnan
aFnan
aFnan
aFnan
aFnan
aFnan
aFnan
aFnan
aFnan
aFnan
aFnan
aFnan
aFnan
aFnan
aFnan
aFnan
aFnan
aFnan
aFnan
aFnan
aFnan
aFnan
aFnan
aFnan
aFnan
aFnan
aFnan
aFnan
aFnan
aF14159.25
aF14159.25
aF14159.25
aF14159.56
aF14160.48
aF14161.67
aF14162.62
aF14163.64
aF14164.8
aF14166.14
aF14167.53
aF14168.45
asS'2110006770'
p109
(lp110
Fnan
aFnan
aFnan
aFnan
aFnan
aFnan
aFnan
aFnan
aFnan
aFnan
aFnan
aFnan
aFnan
aFnan
aFnan
aFnan
aFnan
aFnan
aFnan
aFnan
aFnan
aFnan
aFnan
aFnan
aFnan
aFnan
aFnan
aFnan
aFnan
aFnan
aFnan
aF13452.48
aF13452.75
aF13454.37
aF13456.51
aF13458.63
aF13461.29
aF13463.14
aF13465.0
aF13467.01
aF13468.95
aF13471.06
aF13472.41
asS'2110005499'
p111
(lp112
Fnan
aFnan
aFnan
aFnan
aFnan
aFnan
aFnan
aFnan
aFnan
aFnan
aFnan
aFnan
aFnan
aFnan
aFnan
aFnan
aFnan
aFnan
aFnan
aFnan
aFnan
aFnan
aFnan
aFnan
aFnan
aFnan
aFnan
aFnan
aFnan
aFnan
aFnan
aF11139.88
aF11140.04
aF11141.06
aF11142.5
aF11143.89
aF11145.69
aF11146.87
aF11148.05
aF11149.35
aF11150.63
aF11152.19
aF11153.15
assS'Etotal'
p113
(dp114
g103
F15.06
sg105
F18.17
sg107
F9.2
sg109
F19.93
sg111
F13.27
ssS'Vdc'
p115
(dp116
S'2110040451'
p117
(lp118
Fnan
aFnan
aFnan
aFnan
aFnan
aFnan
aFnan
aFnan
aFnan
aFnan
aFnan
aFnan
aFnan
aFnan
aFnan
aFnan
aFnan
aFnan
aFnan
aFnan
aFnan
aFnan
aFnan
aFnan
aFnan
aFnan
aFnan
aFnan
aFnan
aFnan
aFnan
aF458.46
aF486.9
aF557.27
aF563.54
aF570.27
aF560.48
aF548.88
aF557.37
aF557.18
aF564.76
aF555.72
aF554.0
asS'2110019971'
p119
(lp120
Fnan
aFnan
aFnan
aFnan
aFnan
aFnan
aFnan
aFnan
aFnan
aFnan
aFnan
aFnan
aFnan
aFnan
aFnan
aFnan
aFnan
aFnan
aFnan
aFnan
aFnan
aFnan
aFnan
aFnan
aFnan
aFnan
aFnan
aFnan
aFnan
aFnan
aFnan
aF442.41
aF487.57
aF548.29
aF562.67
aF562.47
aF561.42
aF547.43
aF555.09
aF555.94
aF560.47
aF545.13
aF548.8
asS'2110023534'
p121
(lp122
Fnan
aFnan
aFnan
aFnan
aFnan
aFnan
aFnan
aFnan
aFnan
aFnan
aFnan
aFnan
aFnan
aFnan
aFnan
aFnan
aFnan
aFnan
aFnan
aFnan
aFnan
aFnan
aFnan
aFnan
aFnan
aFnan
aFnan
aFnan
aFnan
aFnan
aFnan
aF545.43
aF602.57
aF630.21
aF602.3
aF546.82
aF550.58
aF549.26
aF554.09
aF551.43
aF560.89
aF553.41
aF548.89
asS'2110006770'
p123
(lp124
Fnan
aFnan
aFnan
aFnan
aFnan
aFnan
aFnan
aFnan
aFnan
aFnan
aFnan
aFnan
aFnan
aFnan
aFnan
aFnan
aFnan
aFnan
aFnan
aFnan
aFnan
aFnan
aFnan
aFnan
aFnan
aFnan
aFnan
aFnan
aFnan
aFnan
aFnan
aF495.17
aF560.38
aF616.85
aF616.59
aF614.38
aF614.0
aF601.12
aF597.09
aF608.81
aF608.75
aF601.06
aF602.08
asS'2110005499'
p125
(lp126
Fnan
aFnan
aFnan
aFnan
aFnan
aFnan
aFnan
aFnan
aFnan
aFnan
aFnan
aFnan
aFnan
aFnan
aFnan
aFnan
aFnan
aFnan
aFnan
aFnan
aFnan
aFnan
aFnan
aFnan
aFnan
aFnan
aFnan
aFnan
aFnan
aFnan
aFnan
aF559.85
aF534.06
aF619.93
aF616.64
aF614.58
aF610.98
aF601.98
aF606.36
aF603.84
aF609.49
aF597.91
aF604.19
assS'Pac'
p127
(dp128
S'2110040451'
p129
(lp130
Fnan
aFnan
aFnan
aFnan
aFnan
aFnan
aFnan
aFnan
aFnan
aFnan
aFnan
aFnan
aFnan
aFnan
aFnan
aFnan
aFnan
aFnan
aFnan
aFnan
aFnan
aFnan
aFnan
aFnan
aFnan
aFnan
aFnan
aFnan
aFnan
aFnan
aFnan
aF68.4
aF753.89
aF4570.21
aF5599.85
aF5568.11
aF7562.61
aF5670.79
aF5313.7
aF6522.82
aF7129.58
aF6234.49
aF5276.87
asS'2110019971'
p131
(lp132
Fnan
aFnan
aFnan
aFnan
aFnan
aFnan
aFnan
aFnan
aFnan
aFnan
aFnan
aFnan
aFnan
aFnan
aFnan
aFnan
aFnan
aFnan
aFnan
aFnan
aFnan
aFnan
aFnan
aFnan
aFnan
aFnan
aFnan
aFnan
aFnan
aFnan
aFnan
aF81.06
aF370.63
aF2948.26
aF6832.74
aF7162.76
aF9492.16
aF6577.34
aF7379.05
aF8136.32
aF8596.14
aF8605.47
aF6134.66
asS'2110023534'
p133
(lp134
Fnan
aFnan
aFnan
aFnan
aFnan
aFnan
aFnan
aFnan
aFnan
aFnan
aFnan
aFnan
aFnan
aFnan
aFnan
aFnan
aFnan
aFnan
aFnan
aFnan
aFnan
aFnan
aFnan
aFnan
aFnan
aFnan
aFnan
aFnan
aFnan
aFnan
aFnan
aF0.0
aF0.0
aF0.0
aF1306.92
aF3716.14
aF4681.68
aF3624.58
aF4138.79
aF4624.5
aF5525.08
aF5402.82
aF3780.23
asS'2110006770'
p135
(lp136
Fnan
aFnan
aFnan
aFnan
aFnan
aFnan
aFnan
aFnan
aFnan
aFnan
aFnan
aFnan
aFnan
aFnan
aFnan
aFnan
aFnan
aFnan
aFnan
aFnan
aFnan
aFnan
aFnan
aFnan
aFnan
aFnan
aFnan
aFnan
aFnan
aFnan
aFnan
aF53.63
aF1109.97
aF6700.42
aF8584.82
aF8443.89
aF10760.62
aF6972.11
aF7491.63
aF8112.47
aF7982.81
aF8076.34
aF5274.31
asS'2110005499'
p137
(lp138
Fnan
aFnan
aFnan
aFnan
aFnan
aFnan
aFnan
aFnan
aFnan
aFnan
aFnan
aFnan
aFnan
aFnan
aFnan
aFnan
aFnan
aFnan
aFnan
aFnan
aFnan
aFnan
aFnan
aFnan
aFnan
aFnan
aFnan
aFnan
aFnan
aFnan
aFnan
aF10.26
aF664.13
aF4271.74
aF5552.0
aF5704.14
aF7022.0
aF4682.46
aF4893.82
aF5254.11
aF5335.16
aF6040.05
aF3532.67
assS'SN'
p139
(dp140
S'2110040451'
p141
(lp142
Fnan
aFnan
aFnan
aFnan
aFnan
aFnan
aFnan
aFnan
aFnan
aFnan
aFnan
aFnan
aFnan
aFnan
aFnan
aFnan
aFnan
aFnan
aFnan
aFnan
aFnan
aFnan
aFnan
aFnan
aFnan
aFnan
aFnan
aFnan
aFnan
aFnan
aFnan
aF2110040451.0
aF2110040451.0
aF2110040451.0
aF2110040451.0
aF2110040451.0
aF2110040451.0
aF2110040451.0
aF2110040451.0
aF2110040451.0
aF2110040451.0
aF2110040451.0
aF2110040451.0
asS'2110019971'
p143
(lp144
Fnan
aFnan
aFnan
aFnan
aFnan
aFnan
aFnan
aFnan
aFnan
aFnan
aFnan
aFnan
aFnan
aFnan
aFnan
aFnan
aFnan
aFnan
aFnan
aFnan
aFnan
aFnan
aFnan
aFnan
aFnan
aFnan
aFnan
aFnan
aFnan
aFnan
aFnan
aF2110019971.0
aF2110019971.0
aF2110019971.0
aF2110019971.0
aF2110019971.0
aF2110019971.0
aF2110019971.0
aF2110019971.0
aF2110019971.0
aF2110019971.0
aF2110019971.0
aF2110019971.0
asS'2110023534'
p145
(lp146
Fnan
aFnan
aFnan
aFnan
aFnan
aFnan
aFnan
aFnan
aFnan
aFnan
aFnan
aFnan
aFnan
aFnan
aFnan
aFnan
aFnan
aFnan
aFnan
aFnan
aFnan
aFnan
aFnan
aFnan
aFnan
aFnan
aFnan
aFnan
aFnan
aFnan
aFnan
aF2110023534.0
aF2110023534.0
aF2110023534.0
aF2110023534.0
aF2110023534.0
aF2110023534.0
aF2110023534.0
aF2110023534.0
aF2110023534.0
aF2110023534.0
aF2110023534.0
aF2110023534.0
asS'2110006770'
p147
(lp148
Fnan
aFnan
aFnan
aFnan
aFnan
aFnan
aFnan
aFnan
aFnan
aFnan
aFnan
aFnan
aFnan
aFnan
aFnan
aFnan
aFnan
aFnan
aFnan
aFnan
aFnan
aFnan
aFnan
aFnan
aFnan
aFnan
aFnan
aFnan
aFnan
aFnan
aFnan
aF2110006770.0
aF2110006770.0
aF2110006770.0
aF2110006770.0
aF2110006770.0
aF2110006770.0
aF2110006770.0
aF2110006770.0
aF2110006770.0
aF2110006770.0
aF2110006770.0
aF2110006770.0
asS'2110005499'
p149
(lp150
Fnan
aFnan
aFnan
aFnan
aFnan
aFnan
aFnan
aFnan
aFnan
aFnan
aFnan
aFnan
aFnan
aFnan
aFnan
aFnan
aFnan
aFnan
aFnan
aFnan
aFnan
aFnan
aFnan
aFnan
aFnan
aFnan
aFnan
aFnan
aFnan
aFnan
aFnan
aF2110005499.0
aF2110005499.0
aF2110005499.0
aF2110005499.0
aF2110005499.0
aF2110005499.0
aF2110005499.0
aF2110005499.0
aF2110005499.0
aF2110005499.0
aF2110005499.0
aF2110005499.0
assS'PRdaily'
p151
F79.5
sS'Error'
p152
(dp153
S'2110040451'
p154
(lp155
Fnan
aFnan
aFnan
aFnan
aFnan
aFnan
aFnan
aFnan
aFnan
aFnan
aFnan
aFnan
aFnan
aFnan
aFnan
aFnan
aFnan
aFnan
aFnan
aFnan
aFnan
aFnan
aFnan
aFnan
aFnan
aFnan
aFnan
aFnan
aFnan
aFnan
aFnan
aF0.0
aF0.0
aF0.0
aF0.0
aF0.0
aF0.0
aF0.0
aF0.0
aF0.0
aF0.0
aF0.0
aF0.0
asS'2110019971'
p156
(lp157
Fnan
aFnan
aFnan
aFnan
aFnan
aFnan
aFnan
aFnan
aFnan
aFnan
aFnan
aFnan
aFnan
aFnan
aFnan
aFnan
aFnan
aFnan
aFnan
aFnan
aFnan
aFnan
aFnan
aFnan
aFnan
aFnan
aFnan
aFnan
aFnan
aFnan
aFnan
aF0.0
aF0.0
aF0.0
aF0.0
aF0.0
aF0.0
aF0.0
aF0.0
aF0.0
aF0.0
aF0.0
aF0.0
asS'2110023534'
p158
(lp159
Fnan
aFnan
aFnan
aFnan
aFnan
aFnan
aFnan
aFnan
aFnan
aFnan
aFnan
aFnan
aFnan
aFnan
aFnan
aFnan
aFnan
aFnan
aFnan
aFnan
aFnan
aFnan
aFnan
aFnan
aFnan
aFnan
aFnan
aFnan
aFnan
aFnan
aFnan
aF41.0
aF41.0
aF41.0
aF0.0
aF0.0
aF0.0
aF0.0
aF0.0
aF0.0
aF0.0
aF0.0
aF0.0
asS'2110006770'
p160
(lp161
Fnan
aFnan
aFnan
aFnan
aFnan
aFnan
aFnan
aFnan
aFnan
aFnan
aFnan
aFnan
aFnan
aFnan
aFnan
aFnan
aFnan
aFnan
aFnan
aFnan
aFnan
aFnan
aFnan
aFnan
aFnan
aFnan
aFnan
aFnan
aFnan
aFnan
aFnan
aF0.0
aF0.0
aF0.0
aF0.0
aF0.0
aF0.0
aF0.0
aF0.0
aF0.0
aF0.0
aF0.0
aF0.0
asS'2110005499'
p162
(lp163
Fnan
aFnan
aFnan
aFnan
aFnan
aFnan
aFnan
aFnan
aFnan
aFnan
aFnan
aFnan
aFnan
aFnan
aFnan
aFnan
aFnan
aFnan
aFnan
aFnan
aFnan
aFnan
aFnan
aFnan
aFnan
aFnan
aFnan
aFnan
aFnan
aFnan
aFnan
aF0.0
aF0.0
aF0.0
aF0.0
aF0.0
aF0.0
aF0.0
aF0.0
aF0.0
aF0.0
aF0.0
aF0.0
assS'Edaily'
p164
F75.6
sS'Pdc'
p165
(dp166
S'2110040451'
p167
(lp168
Fnan
aFnan
aFnan
aFnan
aFnan
aFnan
aFnan
aFnan
aFnan
aFnan
aFnan
aFnan
aFnan
aFnan
aFnan
aFnan
aFnan
aFnan
aFnan
aFnan
aFnan
aFnan
aFnan
aFnan
aFnan
aFnan
aFnan
aFnan
aFnan
aFnan
aFnan
aF66.83
aF651.26
aF4271.84
aF5243.08
aF5094.54
aF6843.87
aF4936.5
aF4451.03
aF5471.69
aF5843.89
aF5080.76
aF4207.77
asS'2110019971'
p169
(lp170
Fnan
aFnan
aFnan
aFnan
aFnan
aFnan
aFnan
aFnan
aFnan
aFnan
aFnan
aFnan
aFnan
aFnan
aFnan
aFnan
aFnan
aFnan
aFnan
aFnan
aFnan
aFnan
aFnan
aFnan
aFnan
aFnan
aFnan
aFnan
aFnan
aFnan
aFnan
aF82.53
aF299.71
aF2532.89
aF6030.95
aF6112.86
aF7990.79
aF5435.05
aF5871.97
aF6334.92
aF6600.68
aF6585.26
aF4580.39
asS'2110023534'
p171
(lp172
Fnan
aFnan
aFnan
aFnan
aFnan
aFnan
aFnan
aFnan
aFnan
aFnan
aFnan
aFnan
aFnan
aFnan
aFnan
aFnan
aFnan
aFnan
aFnan
aFnan
aFnan
aFnan
aFnan
aFnan
aFnan
aFnan
aFnan
aFnan
aFnan
aFnan
aFnan
aF10.53
aF9.34
aF7.72
aF423.5
aF1267.05
aF1660.03
aF1644.68
aF2012.89
aF2376.66
aF2972.08
aF2979.39
aF2296.62
asS'2110006770'
p173
(lp174
Fnan
aFnan
aFnan
aFnan
aFnan
aFnan
aFnan
aFnan
aFnan
aFnan
aFnan
aFnan
aFnan
aFnan
aFnan
aFnan
aFnan
aFnan
aFnan
aFnan
aFnan
aFnan
aFnan
aFnan
aFnan
aFnan
aFnan
aFnan
aFnan
aFnan
aFnan
aF49.5
aF741.97
aF4481.61
aF5750.76
aF5647.79
aF7216.46
aF4753.47
aF4906.5
aF5459.97
aF5338.84
aF5418.55
aF3493.08
asS'2110005499'
p175
(lp176
Fnan
aFnan
aFnan
aFnan
aFnan
aFnan
aFnan
aFnan
aFnan
aFnan
aFnan
aFnan
aFnan
aFnan
aFnan
aFnan
aFnan
aFnan
aFnan
aFnan
aFnan
aFnan
aFnan
aFnan
aFnan
aFnan
aFnan
aFnan
aFnan
aFnan
aFnan
aF11.15
aF362.71
aF2230.26
aF2799.92
aF2872.49
aF3541.16
aF2343.59
aF2406.79
aF2645.66
aF2673.68
aF3054.63
aF1836.82
assS'Idc'
p177
(dp178
S'2110040451'
p179
(lp180
Fnan
aFnan
aFnan
aFnan
aFnan
aFnan
aFnan
aFnan
aFnan
aFnan
aFnan
aFnan
aFnan
aFnan
aFnan
aFnan
aFnan
aFnan
aFnan
aFnan
aFnan
aFnan
aFnan
aFnan
aFnan
aFnan
aFnan
aFnan
aFnan
aFnan
aFnan
aF0.15
aF1.28
aF7.64
aF9.38
aF9.06
aF12.21
aF8.84
aF8.1
aF9.91
aF10.4
aF9.22
aF7.56
asS'2110019971'
p181
(lp182
Fnan
aFnan
aFnan
aFnan
aFnan
aFnan
aFnan
aFnan
aFnan
aFnan
aFnan
aFnan
aFnan
aFnan
aFnan
aFnan
aFnan
aFnan
aFnan
aFnan
aFnan
aFnan
aFnan
aFnan
aFnan
aFnan
aFnan
aFnan
aFnan
aFnan
aFnan
aF0.19
aF0.6
aF4.55
aF10.74
aF10.86
aF14.23
aF9.79
aF10.46
aF11.33
aF11.7
aF11.94
aF8.27
asS'2110023534'
p183
(lp184
Fnan
aFnan
aFnan
aFnan
aFnan
aFnan
aFnan
aFnan
aFnan
aFnan
aFnan
aFnan
aFnan
aFnan
aFnan
aFnan
aFnan
aFnan
aFnan
aFnan
aFnan
aFnan
aFnan
aFnan
aFnan
aFnan
aFnan
aFnan
aFnan
aFnan
aFnan
aF0.02
aF0.02
aF0.01
aF0.78
aF2.31
aF3.01
aF2.97
aF3.61
aF4.31
aF5.26
aF5.33
aF4.15
asS'2110006770'
p185
(lp186
Fnan
aFnan
aFnan
aFnan
aFnan
aFnan
aFnan
aFnan
aFnan
aFnan
aFnan
aFnan
aFnan
aFnan
aFnan
aFnan
aFnan
aFnan
aFnan
aFnan
aFnan
aFnan
aFnan
aFnan
aFnan
aFnan
aFnan
aFnan
aFnan
aFnan
aFnan
aF0.11
aF1.28
aF7.26
aF9.33
aF9.19
aF11.76
aF7.79
aF8.16
aF8.93
aF8.68
aF8.91
aF5.78
asS'2110005499'
p187
(lp188
Fnan
aFnan
aFnan
aFnan
aFnan
aFnan
aFnan
aFnan
aFnan
aFnan
aFnan
aFnan
aFnan
aFnan
aFnan
aFnan
aFnan
aFnan
aFnan
aFnan
aFnan
aFnan
aFnan
aFnan
aFnan
aFnan
aFnan
aFnan
aFnan
aFnan
aFnan
aF0.02
aF0.63
aF3.59
aF4.54
aF4.68
aF5.79
aF3.85
aF3.93
aF4.38
aF4.35
aF5.08
aF3.03
assS'Mode'
p189
(dp190
S'2110040451'
p191
(lp192
Fnan
aFnan
aFnan
aFnan
aFnan
aFnan
aFnan
aFnan
aFnan
aFnan
aFnan
aFnan
aFnan
aFnan
aFnan
aFnan
aFnan
aFnan
aFnan
aFnan
aFnan
aFnan
aFnan
aFnan
aFnan
aFnan
aFnan
aFnan
aFnan
aFnan
aFnan
aF1.0
aF1.0
aF1.0
aF1.0
aF1.0
aF1.0
aF1.0
aF1.0
aF1.0
aF1.0
aF1.0
aF1.0
asS'2110019971'
p193
(lp194
Fnan
aFnan
aFnan
aFnan
aFnan
aFnan
aFnan
aFnan
aFnan
aFnan
aFnan
aFnan
aFnan
aFnan
aFnan
aFnan
aFnan
aFnan
aFnan
aFnan
aFnan
aFnan
aFnan
aFnan
aFnan
aFnan
aFnan
aFnan
aFnan
aFnan
aFnan
aF1.0
aF1.0
aF1.0
aF1.0
aF1.0
aF1.0
aF1.0
aF1.0
aF1.0
aF1.0
aF1.0
aF1.0
asS'2110023534'
p195
(lp196
Fnan
aFnan
aFnan
aFnan
aFnan
aFnan
aFnan
aFnan
aFnan
aFnan
aFnan
aFnan
aFnan
aFnan
aFnan
aFnan
aFnan
aFnan
aFnan
aFnan
aFnan
aFnan
aFnan
aFnan
aFnan
aFnan
aFnan
aFnan
aFnan
aFnan
aFnan
aF7.0
aF6.0
aF6.0
aF1.0
aF1.0
aF1.0
aF1.0
aF1.0
aF1.0
aF1.0
aF1.0
aF1.0
asS'2110006770'
p197
(lp198
Fnan
aFnan
aFnan
aFnan
aFnan
aFnan
aFnan
aFnan
aFnan
aFnan
aFnan
aFnan
aFnan
aFnan
aFnan
aFnan
aFnan
aFnan
aFnan
aFnan
aFnan
aFnan
aFnan
aFnan
aFnan
aFnan
aFnan
aFnan
aFnan
aFnan
aFnan
aF1.0
aF1.0
aF1.0
aF1.0
aF1.0
aF1.0
aF1.0
aF1.0
aF1.0
aF1.0
aF1.0
aF1.0
asS'2110005499'
p199
(lp200
Fnan
aFnan
aFnan
aFnan
aFnan
aFnan
aFnan
aFnan
aFnan
aFnan
aFnan
aFnan
aFnan
aFnan
aFnan
aFnan
aFnan
aFnan
aFnan
aFnan
aFnan
aFnan
aFnan
aFnan
aFnan
aFnan
aFnan
aFnan
aFnan
aFnan
aFnan
aF1.0
aF1.0
aF1.0
aF1.0
aF1.0
aF1.0
aF1.0
aF1.0
aF1.0
aF1.0
aF1.0
aF1.0
asss.