(dp0
cdatetime
date
p1
(S'\x07\xdc\n\x03'
p2
tp3
Rp4
(dp5
S'Irradiance'
p6
(dp7
S'19761'
p8
(lp9
F1.0
aF0.8
aF1.0
aF0.8
aF0.91
aF1.0
aF0.9
aF0.9
aF0.7
aF0.9
aF1.0
aF1.0
aF1.0
aF0.91
aF0.7
aF0.67
aF0.6
aF1.0
aF1.0
aF0.9
aF1.0
aF1.0
aF1.0
aF1.0
aF0.9
aF0.6
aF0.5
aF0.5
aF0.5
aF0.4
aF0.0
aF0.0
aF0.18
aF0.25
aF0.1
aF0.44
aF0.0
aF0.3
aF0.6
aF0.56
aF0.8
aF0.55
aF0.6
aF0.6
aF1.0
aF1.0
aF0.5
aF0.6
aF0.8
aF0.8
aF0.5
aF0.7
aF0.89
aF0.6
aF0.67
aF0.9
aF0.9
aF0.7
aF1.09
aF1.0
aF0.89
aF0.8
aF1.0
aF0.8
aF1.0
aF1.0
aF0.4
aF0.8
aF0.36
aF0.7
aF0.8
aF1.0
aF1.0
aF1.0
aF0.89
aF0.9
aF0.6
aF0.9
aF0.9
aF0.9
aF1.0
aF0.8
aF0.88
aF0.6
aF0.4
aF0.6
aF0.2
aF0.82
aF1.63
aF4.5
aF8.18
aF13.27
aF18.92
aF25.18
aF33.56
aF43.5
aF54.0
aF61.6
aF59.17
aF70.08
aF82.1
aF54.42
aF65.7
aF86.9
aF94.36
aF91.92
aF62.0
aF114.0
aF246.75
aF138.0
aF117.45
aF323.92
aF307.3
aF460.92
aF619.1
aF667.0
aF717.42
aF753.0
aF694.2
aF294.5
aF500.3
aF513.7
aF576.0
aF776.92
aF786.22
aF803.08
aF816.82
assS'Pdc_b'
p10
(dp11
S'2110110152'
p12
(lp13
Fnan
aFnan
aFnan
aFnan
aFnan
aFnan
aFnan
aFnan
aFnan
aFnan
aFnan
aFnan
aFnan
aFnan
aFnan
aFnan
aFnan
aFnan
aFnan
aFnan
aFnan
aFnan
aFnan
aFnan
aFnan
aFnan
aFnan
aFnan
aFnan
aFnan
aFnan
aFnan
aFnan
aFnan
aFnan
aFnan
aFnan
aFnan
aFnan
aFnan
aFnan
aFnan
aFnan
aFnan
aFnan
aFnan
aFnan
aFnan
aFnan
aFnan
aFnan
aFnan
aFnan
aFnan
aFnan
aFnan
aFnan
aFnan
aFnan
aFnan
aFnan
aFnan
aFnan
aFnan
aFnan
aFnan
aFnan
aFnan
aFnan
aFnan
aFnan
aFnan
aFnan
aFnan
aFnan
aFnan
aFnan
aFnan
aFnan
aFnan
aFnan
aFnan
aFnan
aFnan
aFnan
aFnan
aFnan
aFnan
aF11.25
aF15.73
aF44.92
aF68.18
aF90.73
aF115.42
aF153.56
aF196.92
aF240.0
aF276.9
aF249.33
aF287.75
aF361.91
aF222.27
aF280.08
aF374.0
aF459.83
aF411.42
aF264.2
aF505.75
aF1278.92
aF709.4
aF512.92
aF1779.82
aF1388.27
aF2386.27
aF3196.92
aF3445.5
aF3674.33
aF3887.27
aF3569.73
aF1358.75
aF2527.2
aF2469.0
aF2968.75
aF3934.92
aF3933.9
aF3994.17
aF4028.64
asS'2110115583'
p14
(lp15
Fnan
aFnan
aFnan
aFnan
aFnan
aFnan
aFnan
aFnan
aFnan
aFnan
aFnan
aFnan
aFnan
aFnan
aFnan
aFnan
aFnan
aFnan
aFnan
aFnan
aFnan
aFnan
aFnan
aFnan
aFnan
aFnan
aFnan
aFnan
aFnan
aFnan
aFnan
aFnan
aFnan
aFnan
aFnan
aFnan
aFnan
aFnan
aFnan
aFnan
aFnan
aFnan
aFnan
aFnan
aFnan
aFnan
aFnan
aFnan
aFnan
aFnan
aFnan
aFnan
aFnan
aFnan
aFnan
aFnan
aFnan
aFnan
aFnan
aFnan
aFnan
aFnan
aFnan
aFnan
aFnan
aFnan
aFnan
aFnan
aFnan
aFnan
aFnan
aFnan
aFnan
aFnan
aFnan
aFnan
aFnan
aFnan
aFnan
aFnan
aFnan
aFnan
aFnan
aFnan
aFnan
aFnan
aFnan
aFnan
aF10.0
aF11.0
aF41.33
aF65.3
aF86.17
aF112.33
aF150.11
aF191.33
aF238.67
aF275.3
aF248.33
aF283.0
aF142.73
aF18.0
aF165.83
aF372.89
aF463.0
aF412.08
aF262.3
aF510.25
aF1289.83
aF703.3
aF496.33
aF1671.82
aF1401.27
aF2388.64
aF3195.73
aF3444.73
aF3696.0
aF3910.45
aF3741.9
aF1427.25
aF2402.55
aF2453.4
aF2978.33
aF3924.0
aF3928.0
aF3987.36
aF4027.83
asS'2110115581'
p16
(lp17
Fnan
aFnan
aFnan
aFnan
aFnan
aFnan
aFnan
aFnan
aFnan
aFnan
aFnan
aFnan
aFnan
aFnan
aFnan
aFnan
aFnan
aFnan
aFnan
aFnan
aFnan
aFnan
aFnan
aFnan
aFnan
aFnan
aFnan
aFnan
aFnan
aFnan
aFnan
aFnan
aFnan
aFnan
aFnan
aFnan
aFnan
aFnan
aFnan
aFnan
aFnan
aFnan
aFnan
aFnan
aFnan
aFnan
aFnan
aFnan
aFnan
aFnan
aFnan
aFnan
aFnan
aFnan
aFnan
aFnan
aFnan
aFnan
aFnan
aFnan
aFnan
aFnan
aFnan
aFnan
aFnan
aFnan
aFnan
aFnan
aFnan
aFnan
aFnan
aFnan
aFnan
aFnan
aFnan
aFnan
aFnan
aFnan
aFnan
aFnan
aFnan
aFnan
aFnan
aFnan
aFnan
aFnan
aFnan
aFnan
aF10.0
aF13.0
aF44.08
aF68.1
aF88.67
aF114.92
aF150.78
aF195.92
aF244.33
aF282.7
aF253.25
aF290.92
aF155.8
aF18.83
aF171.42
aF378.89
aF466.75
aF395.33
aF263.2
aF524.92
aF1293.67
aF688.4
aF402.91
aF1615.58
aF1519.7
aF2319.58
aF3150.45
aF3395.73
aF3647.75
aF3865.36
aF3695.6
aF1429.58
aF2400.09
aF2422.3
aF2940.92
aF3890.58
aF3891.4
aF3955.45
aF3997.27
asS'2110140194'
p18
(lp19
Fnan
aFnan
aFnan
aFnan
aFnan
aFnan
aFnan
aFnan
aFnan
aFnan
aFnan
aFnan
aFnan
aFnan
aFnan
aFnan
aFnan
aFnan
aFnan
aFnan
aFnan
aFnan
aFnan
aFnan
aFnan
aFnan
aFnan
aFnan
aFnan
aFnan
aFnan
aFnan
aFnan
aFnan
aFnan
aFnan
aFnan
aFnan
aFnan
aFnan
aFnan
aFnan
aFnan
aFnan
aFnan
aFnan
aFnan
aFnan
aFnan
aFnan
aFnan
aFnan
aFnan
aFnan
aFnan
aFnan
aFnan
aFnan
aFnan
aFnan
aFnan
aFnan
aFnan
aFnan
aFnan
aFnan
aFnan
aFnan
aFnan
aFnan
aFnan
aFnan
aFnan
aFnan
aFnan
aFnan
aFnan
aFnan
aFnan
aFnan
aFnan
aFnan
aFnan
aFnan
aFnan
aFnan
aFnan
aFnan
aF8.75
aF10.0
aF10.5
aF11.0
aF11.0
aF11.0
aF11.5
aF12.0
aF12.0
aF12.0
aF12.0
aF12.0
aF12.1
aF12.0
aF12.0
aF12.0
aF12.0
aF12.0
aF12.0
aF12.0
aF12.75
aF12.27
aF12.09
aF12.58
aF12.5
aF13.0
aF13.0
aF13.0
aF13.0
aF13.0
aF12.91
aF12.0
aF12.92
aF12.82
aF13.0
aF13.0
aF13.0
aF13.0
aF13.0
asS'2110111261'
p20
(lp21
Fnan
aFnan
aFnan
aFnan
aFnan
aFnan
aFnan
aFnan
aFnan
aFnan
aFnan
aFnan
aFnan
aFnan
aFnan
aFnan
aFnan
aFnan
aFnan
aFnan
aFnan
aFnan
aFnan
aFnan
aFnan
aFnan
aFnan
aFnan
aFnan
aFnan
aFnan
aFnan
aFnan
aFnan
aFnan
aFnan
aFnan
aFnan
aFnan
aFnan
aFnan
aFnan
aFnan
aFnan
aFnan
aFnan
aFnan
aFnan
aFnan
aFnan
aFnan
aFnan
aFnan
aFnan
aFnan
aFnan
aFnan
aFnan
aFnan
aFnan
aFnan
aFnan
aFnan
aFnan
aFnan
aFnan
aFnan
aFnan
aFnan
aFnan
aFnan
aFnan
aFnan
aFnan
aFnan
aFnan
aFnan
aFnan
aFnan
aFnan
aFnan
aFnan
aFnan
aFnan
aFnan
aFnan
aFnan
aFnan
aF10.0
aF14.42
aF45.0
aF67.9
aF93.0
aF119.18
aF158.3
aF206.83
aF259.64
aF308.45
aF281.0
aF328.17
aF516.9
aF248.08
aF307.27
aF394.2
aF501.18
aF399.92
aF268.73
aF543.5
aF1375.73
aF776.55
aF439.64
aF1680.92
aF1552.2
aF2399.5
aF3234.18
aF3476.1
aF3734.0
aF3955.45
aF3772.0
aF1507.0
aF2422.3
aF2494.27
aF3014.5
aF3986.18
aF3993.18
aF4061.45
aF4104.64
assS'Vdc_b'
p22
(dp23
S'2110110152'
p24
(lp25
Fnan
aFnan
aFnan
aFnan
aFnan
aFnan
aFnan
aFnan
aFnan
aFnan
aFnan
aFnan
aFnan
aFnan
aFnan
aFnan
aFnan
aFnan
aFnan
aFnan
aFnan
aFnan
aFnan
aFnan
aFnan
aFnan
aFnan
aFnan
aFnan
aFnan
aFnan
aFnan
aFnan
aFnan
aFnan
aFnan
aFnan
aFnan
aFnan
aFnan
aFnan
aFnan
aFnan
aFnan
aFnan
aFnan
aFnan
aFnan
aFnan
aFnan
aFnan
aFnan
aFnan
aFnan
aFnan
aFnan
aFnan
aFnan
aFnan
aFnan
aFnan
aFnan
aFnan
aFnan
aFnan
aFnan
aFnan
aFnan
aFnan
aFnan
aFnan
aFnan
aFnan
aFnan
aFnan
aFnan
aFnan
aFnan
aFnan
aFnan
aFnan
aFnan
aFnan
aFnan
aFnan
aFnan
aFnan
aFnan
aF661.91
aF662.53
aF556.83
aF600.79
aF625.09
aF640.15
aF643.49
aF656.22
aF670.56
aF680.14
aF678.62
aF686.17
aF676.53
aF674.53
aF677.06
aF682.68
aF697.12
aF686.71
aF662.08
aF694.23
aF722.22
aF696.12
aF694.69
aF695.48
aF701.0
aF688.56
aF690.06
aF686.38
aF680.62
aF676.59
aF675.77
aF682.26
aF693.89
aF691.95
aF684.66
aF674.17
aF669.52
aF669.94
aF668.47
asS'2110115583'
p26
(lp27
Fnan
aFnan
aFnan
aFnan
aFnan
aFnan
aFnan
aFnan
aFnan
aFnan
aFnan
aFnan
aFnan
aFnan
aFnan
aFnan
aFnan
aFnan
aFnan
aFnan
aFnan
aFnan
aFnan
aFnan
aFnan
aFnan
aFnan
aFnan
aFnan
aFnan
aFnan
aFnan
aFnan
aFnan
aFnan
aFnan
aFnan
aFnan
aFnan
aFnan
aFnan
aFnan
aFnan
aFnan
aFnan
aFnan
aFnan
aFnan
aFnan
aFnan
aFnan
aFnan
aFnan
aFnan
aFnan
aFnan
aFnan
aFnan
aFnan
aFnan
aFnan
aFnan
aFnan
aFnan
aFnan
aFnan
aFnan
aFnan
aFnan
aFnan
aFnan
aFnan
aFnan
aFnan
aFnan
aFnan
aFnan
aFnan
aFnan
aFnan
aFnan
aFnan
aFnan
aFnan
aFnan
aFnan
aFnan
aFnan
aF668.94
aF686.95
aF568.45
aF608.18
aF630.6
aF640.52
aF640.72
aF658.83
aF668.92
aF676.97
aF672.72
aF679.7
aF748.6
aF762.8
aF711.09
aF682.68
aF690.11
aF679.32
aF659.56
aF690.84
aF714.05
aF689.88
aF692.29
aF710.53
aF690.39
aF704.89
aF687.56
aF680.68
aF676.55
aF676.03
aF675.32
aF683.53
aF688.5
aF692.98
aF691.81
aF681.46
aF677.75
aF677.24
aF677.38
asS'2110115581'
p28
(lp29
Fnan
aFnan
aFnan
aFnan
aFnan
aFnan
aFnan
aFnan
aFnan
aFnan
aFnan
aFnan
aFnan
aFnan
aFnan
aFnan
aFnan
aFnan
aFnan
aFnan
aFnan
aFnan
aFnan
aFnan
aFnan
aFnan
aFnan
aFnan
aFnan
aFnan
aFnan
aFnan
aFnan
aFnan
aFnan
aFnan
aFnan
aFnan
aFnan
aFnan
aFnan
aFnan
aFnan
aFnan
aFnan
aFnan
aFnan
aFnan
aFnan
aFnan
aFnan
aFnan
aFnan
aFnan
aFnan
aFnan
aFnan
aFnan
aFnan
aFnan
aFnan
aFnan
aFnan
aFnan
aFnan
aFnan
aFnan
aFnan
aFnan
aFnan
aFnan
aFnan
aFnan
aFnan
aFnan
aFnan
aFnan
aFnan
aFnan
aFnan
aFnan
aFnan
aFnan
aFnan
aFnan
aFnan
aFnan
aFnan
aF673.41
aF678.27
aF559.9
aF610.67
aF625.61
aF639.79
aF645.18
aF657.03
aF671.24
aF678.07
aF674.61
aF683.42
aF749.67
aF763.13
aF710.25
aF675.02
aF686.55
aF672.72
aF663.61
aF689.17
aF701.65
aF687.55
aF690.97
aF710.01
aF717.22
aF699.68
aF687.24
aF676.8
aF673.99
aF670.33
aF668.13
aF684.26
aF689.56
aF689.49
aF684.47
aF675.98
aF670.43
aF670.8
aF671.18
asS'2110140194'
p30
(lp31
Fnan
aFnan
aFnan
aFnan
aFnan
aFnan
aFnan
aFnan
aFnan
aFnan
aFnan
aFnan
aFnan
aFnan
aFnan
aFnan
aFnan
aFnan
aFnan
aFnan
aFnan
aFnan
aFnan
aFnan
aFnan
aFnan
aFnan
aFnan
aFnan
aFnan
aFnan
aFnan
aFnan
aFnan
aFnan
aFnan
aFnan
aFnan
aFnan
aFnan
aFnan
aFnan
aFnan
aFnan
aFnan
aFnan
aFnan
aFnan
aFnan
aFnan
aFnan
aFnan
aFnan
aFnan
aFnan
aFnan
aFnan
aFnan
aFnan
aFnan
aFnan
aFnan
aFnan
aFnan
aFnan
aFnan
aFnan
aFnan
aFnan
aFnan
aFnan
aFnan
aFnan
aFnan
aFnan
aFnan
aFnan
aFnan
aFnan
aFnan
aFnan
aFnan
aFnan
aFnan
aFnan
aFnan
aFnan
aFnan
aF673.15
aF687.61
aF704.51
aF719.83
aF730.8
aF739.34
aF749.93
aF759.16
aF766.83
aF771.28
aF766.79
aF771.66
aF776.33
aF760.45
aF768.63
aF779.57
aF785.95
aF783.19
aF771.77
aF794.63
aF821.26
aF790.72
aF789.81
aF824.71
aF814.61
aF829.99
aF829.27
aF825.58
aF823.63
aF824.22
aF821.57
aF799.44
aF830.8
aF823.07
aF827.75
aF831.53
aF828.26
aF827.03
aF827.07
asS'2110111261'
p32
(lp33
Fnan
aFnan
aFnan
aFnan
aFnan
aFnan
aFnan
aFnan
aFnan
aFnan
aFnan
aFnan
aFnan
aFnan
aFnan
aFnan
aFnan
aFnan
aFnan
aFnan
aFnan
aFnan
aFnan
aFnan
aFnan
aFnan
aFnan
aFnan
aFnan
aFnan
aFnan
aFnan
aFnan
aFnan
aFnan
aFnan
aFnan
aFnan
aFnan
aFnan
aFnan
aFnan
aFnan
aFnan
aFnan
aFnan
aFnan
aFnan
aFnan
aFnan
aFnan
aFnan
aFnan
aFnan
aFnan
aFnan
aFnan
aFnan
aFnan
aFnan
aFnan
aFnan
aFnan
aFnan
aFnan
aFnan
aFnan
aFnan
aFnan
aFnan
aFnan
aFnan
aFnan
aFnan
aFnan
aFnan
aFnan
aFnan
aFnan
aFnan
aFnan
aFnan
aFnan
aFnan
aFnan
aFnan
aFnan
aFnan
aF669.27
aF662.98
aF559.45
aF599.38
aF629.85
aF634.59
aF636.26
aF655.68
aF658.03
aF665.74
aF657.7
aF666.33
aF671.31
aF657.0
aF660.8
aF667.23
aF678.27
aF676.09
aF661.68
aF682.21
aF702.77
aF680.53
aF675.91
aF696.82
aF700.62
aF689.84
aF682.38
aF674.44
aF672.23
aF669.27
aF666.48
aF679.08
aF686.35
aF672.36
aF682.15
aF676.97
aF672.56
aF670.56
aF670.77
assS'Tambient'
p34
(dp35
S'19761'
p36
(lp37
F10.93
aF10.66
aF10.78
aF10.58
aF10.29
aF10.52
aF11.13
aF10.4
aF10.28
aF9.76
aF9.76
aF9.84
aF10.37
aF11.52
aF11.7
aF11.8
aF11.78
aF11.67
aF11.78
aF11.77
aF11.7
aF11.59
aF11.6
aF11.62
aF11.58
aF11.52
aF11.14
aF11.69
aF11.75
aF11.73
aF11.63
aF11.68
aF11.76
aF11.76
aF11.83
aF12.0
aF12.15
aF12.18
aF12.02
aF11.94
aF11.92
aF11.94
aF11.88
aF11.76
aF11.79
aF11.88
aF11.96
aF11.99
aF11.83
aF11.83
aF11.86
aF12.04
aF12.04
aF11.81
aF11.62
aF11.44
aF11.38
aF11.3
aF11.15
aF11.09
aF10.92
aF10.88
aF10.95
aF11.05
aF11.08
aF11.03
aF11.14
aF10.88
aF10.84
aF10.82
aF10.69
aF10.65
aF10.86
aF11.06
aF11.04
aF10.85
aF10.91
aF11.16
aF11.31
aF11.16
aF11.06
aF11.38
aF11.37
aF11.62
aF11.52
aF11.28
aF11.25
aF10.62
aF10.28
aF10.56
aF11.38
aF11.68
aF11.66
aF11.69
aF11.69
aF11.54
aF11.68
aF11.6
aF11.85
aF11.87
aF11.94
aF11.95
aF11.96
aF12.06
aF11.73
aF11.06
aF11.48
aF11.89
aF11.62
aF11.51
aF11.15
aF11.41
aF11.86
aF12.73
aF13.15
aF13.18
aF13.23
aF13.2
aF13.23
aF12.71
aF12.68
aF12.9
aF13.04
aF13.34
aF13.45
aF13.46
aF13.39
assS'Clock'
p38
(dp39
S'000'
p40
(lp41
S'00:00'
p42
aS'00:05'
p43
aS'00:10'
p44
aS'00:15'
p45
aS'00:20'
p46
aS'00:25'
p47
aS'00:30'
p48
aS'00:35'
p49
aS'00:40'
p50
aS'00:45'
p51
aS'00:50'
p52
aS'00:55'
p53
aS'01:00'
p54
aS'01:05'
p55
aS'01:10'
p56
aS'01:15'
p57
aS'01:20'
p58
aS'01:25'
p59
aS'01:30'
p60
aS'01:35'
p61
aS'01:40'
p62
aS'01:45'
p63
aS'01:50'
p64
aS'01:55'
p65
aS'02:00'
p66
aS'02:05'
p67
aS'02:10'
p68
aS'02:15'
p69
aS'02:20'
p70
aS'02:25'
p71
aS'02:30'
p72
aS'02:35'
p73
aS'02:40'
p74
aS'02:45'
p75
aS'02:50'
p76
aS'02:55'
p77
aS'03:00'
p78
aS'03:05'
p79
aS'03:10'
p80
aS'03:15'
p81
aS'03:20'
p82
aS'03:25'
p83
aS'03:30'
p84
aS'03:35'
p85
aS'03:40'
p86
aS'03:45'
p87
aS'03:50'
p88
aS'03:55'
p89
aS'04:00'
p90
aS'04:05'
p91
aS'04:10'
p92
aS'04:15'
p93
aS'04:20'
p94
aS'04:25'
p95
aS'04:30'
p96
aS'04:35'
p97
aS'04:40'
p98
aS'04:45'
p99
aS'04:50'
p100
aS'04:55'
p101
aS'05:00'
p102
aS'05:05'
p103
aS'05:10'
p104
aS'05:15'
p105
aS'05:20'
p106
aS'05:25'
p107
aS'05:30'
p108
aS'05:35'
p109
aS'05:40'
p110
aS'05:45'
p111
aS'05:50'
p112
aS'05:55'
p113
aS'06:00'
p114
aS'06:05'
p115
aS'06:10'
p116
aS'06:15'
p117
aS'06:20'
p118
aS'06:25'
p119
aS'06:30'
p120
aS'06:35'
p121
aS'06:40'
p122
aS'06:45'
p123
aS'06:50'
p124
aS'06:55'
p125
aS'07:00'
p126
aS'07:05'
p127
aS'07:10'
p128
aS'07:15'
p129
aS'07:20'
p130
aS'07:25'
p131
aS'07:30'
p132
aS'07:35'
p133
aS'07:40'
p134
aS'07:45'
p135
aS'07:50'
p136
aS'07:55'
p137
aS'08:00'
p138
aS'08:05'
p139
aS'08:10'
p140
aS'08:15'
p141
aS'08:20'
p142
aS'08:25'
p143
aS'08:30'
p144
aS'08:35'
p145
aS'08:40'
p146
aS'08:45'
p147
aS'08:50'
p148
aS'08:55'
p149
aS'09:00'
p150
aS'09:05'
p151
aS'09:10'
p152
aS'09:15'
p153
aS'09:20'
p154
aS'09:25'
p155
aS'09:30'
p156
aS'09:35'
p157
aS'09:40'
p158
aS'09:45'
p159
aS'09:50'
p160
aS'09:55'
p161
aS'10:00'
p162
aS'10:05'
p163
aS'10:10'
p164
aS'10:15'
p165
aS'10:20'
p166
aS'10:25'
p167
aS'10:30'
p168
assS'Idc_b'
p169
(dp170
S'2110110152'
p171
(lp172
Fnan
aFnan
aFnan
aFnan
aFnan
aFnan
aFnan
aFnan
aFnan
aFnan
aFnan
aFnan
aFnan
aFnan
aFnan
aFnan
aFnan
aFnan
aFnan
aFnan
aFnan
aFnan
aFnan
aFnan
aFnan
aFnan
aFnan
aFnan
aFnan
aFnan
aFnan
aFnan
aFnan
aFnan
aFnan
aFnan
aFnan
aFnan
aFnan
aFnan
aFnan
aFnan
aFnan
aFnan
aFnan
aFnan
aFnan
aFnan
aFnan
aFnan
aFnan
aFnan
aFnan
aFnan
aFnan
aFnan
aFnan
aFnan
aFnan
aFnan
aFnan
aFnan
aFnan
aFnan
aFnan
aFnan
aFnan
aFnan
aFnan
aFnan
aFnan
aFnan
aFnan
aFnan
aFnan
aFnan
aFnan
aFnan
aFnan
aFnan
aFnan
aFnan
aFnan
aFnan
aFnan
aFnan
aFnan
aFnan
aF0.02
aF0.03
aF0.08
aF0.11
aF0.15
aF0.18
aF0.24
aF0.3
aF0.36
aF0.41
aF0.37
aF0.42
aF0.53
aF0.33
aF0.41
aF0.55
aF0.66
aF0.6
aF0.4
aF0.73
aF1.77
aF1.0
aF0.74
aF2.57
aF1.98
aF3.46
aF4.64
aF5.02
aF5.4
aF5.75
aF5.29
aF2.0
aF3.64
aF3.57
aF4.34
aF5.84
aF5.88
aF5.96
aF6.03
asS'2110115583'
p173
(lp174
Fnan
aFnan
aFnan
aFnan
aFnan
aFnan
aFnan
aFnan
aFnan
aFnan
aFnan
aFnan
aFnan
aFnan
aFnan
aFnan
aFnan
aFnan
aFnan
aFnan
aFnan
aFnan
aFnan
aFnan
aFnan
aFnan
aFnan
aFnan
aFnan
aFnan
aFnan
aFnan
aFnan
aFnan
aFnan
aFnan
aFnan
aFnan
aFnan
aFnan
aFnan
aFnan
aFnan
aFnan
aFnan
aFnan
aFnan
aFnan
aFnan
aFnan
aFnan
aFnan
aFnan
aFnan
aFnan
aFnan
aFnan
aFnan
aFnan
aFnan
aFnan
aFnan
aFnan
aFnan
aFnan
aFnan
aFnan
aFnan
aFnan
aFnan
aFnan
aFnan
aFnan
aFnan
aFnan
aFnan
aFnan
aFnan
aFnan
aFnan
aFnan
aFnan
aFnan
aFnan
aFnan
aFnan
aFnan
aFnan
aF0.02
aF0.02
aF0.07
aF0.11
aF0.14
aF0.18
aF0.24
aF0.29
aF0.36
aF0.41
aF0.37
aF0.42
aF0.2
aF0.02
aF0.25
aF0.55
aF0.67
aF0.61
aF0.4
aF0.74
aF1.81
aF1.0
aF0.71
aF2.36
aF2.04
aF3.39
aF4.65
aF5.06
aF5.46
aF5.79
aF5.54
aF2.09
aF3.49
aF3.54
aF4.31
aF5.76
aF5.8
aF5.89
aF5.95
asS'2110115581'
p175
(lp176
Fnan
aFnan
aFnan
aFnan
aFnan
aFnan
aFnan
aFnan
aFnan
aFnan
aFnan
aFnan
aFnan
aFnan
aFnan
aFnan
aFnan
aFnan
aFnan
aFnan
aFnan
aFnan
aFnan
aFnan
aFnan
aFnan
aFnan
aFnan
aFnan
aFnan
aFnan
aFnan
aFnan
aFnan
aFnan
aFnan
aFnan
aFnan
aFnan
aFnan
aFnan
aFnan
aFnan
aFnan
aFnan
aFnan
aFnan
aFnan
aFnan
aFnan
aFnan
aFnan
aFnan
aFnan
aFnan
aFnan
aFnan
aFnan
aFnan
aFnan
aFnan
aFnan
aFnan
aFnan
aFnan
aFnan
aFnan
aFnan
aFnan
aFnan
aFnan
aFnan
aFnan
aFnan
aFnan
aFnan
aFnan
aFnan
aFnan
aFnan
aFnan
aFnan
aFnan
aFnan
aFnan
aFnan
aFnan
aFnan
aF0.02
aF0.02
aF0.08
aF0.11
aF0.14
aF0.18
aF0.23
aF0.3
aF0.36
aF0.42
aF0.38
aF0.43
aF0.21
aF0.03
aF0.26
aF0.56
aF0.68
aF0.59
aF0.4
aF0.76
aF1.85
aF0.99
aF0.58
aF2.27
aF2.11
aF3.31
aF4.59
aF5.02
aF5.41
aF5.77
aF5.53
aF2.09
aF3.48
aF3.51
aF4.31
aF5.76
aF5.81
aF5.9
aF5.96
asS'2110140194'
p177
(lp178
Fnan
aFnan
aFnan
aFnan
aFnan
aFnan
aFnan
aFnan
aFnan
aFnan
aFnan
aFnan
aFnan
aFnan
aFnan
aFnan
aFnan
aFnan
aFnan
aFnan
aFnan
aFnan
aFnan
aFnan
aFnan
aFnan
aFnan
aFnan
aFnan
aFnan
aFnan
aFnan
aFnan
aFnan
aFnan
aFnan
aFnan
aFnan
aFnan
aFnan
aFnan
aFnan
aFnan
aFnan
aFnan
aFnan
aFnan
aFnan
aFnan
aFnan
aFnan
aFnan
aFnan
aFnan
aFnan
aFnan
aFnan
aFnan
aFnan
aFnan
aFnan
aFnan
aFnan
aFnan
aFnan
aFnan
aFnan
aFnan
aFnan
aFnan
aFnan
aFnan
aFnan
aFnan
aFnan
aFnan
aFnan
aFnan
aFnan
aFnan
aFnan
aFnan
aFnan
aFnan
aFnan
aFnan
aFnan
aFnan
aF0.01
aF0.02
aF0.02
aF0.02
aF0.02
aF0.02
aF0.02
aF0.02
aF0.02
aF0.02
aF0.02
aF0.02
aF0.02
aF0.02
aF0.02
aF0.02
aF0.02
aF0.02
aF0.02
aF0.02
aF0.02
aF0.02
aF0.02
aF0.02
aF0.02
aF0.02
aF0.02
aF0.02
aF0.02
aF0.02
aF0.02
aF0.02
aF0.02
aF0.02
aF0.02
aF0.02
aF0.02
aF0.02
aF0.02
asS'2110111261'
p179
(lp180
Fnan
aFnan
aFnan
aFnan
aFnan
aFnan
aFnan
aFnan
aFnan
aFnan
aFnan
aFnan
aFnan
aFnan
aFnan
aFnan
aFnan
aFnan
aFnan
aFnan
aFnan
aFnan
aFnan
aFnan
aFnan
aFnan
aFnan
aFnan
aFnan
aFnan
aFnan
aFnan
aFnan
aFnan
aFnan
aFnan
aFnan
aFnan
aFnan
aFnan
aFnan
aFnan
aFnan
aFnan
aFnan
aFnan
aFnan
aFnan
aFnan
aFnan
aFnan
aFnan
aFnan
aFnan
aFnan
aFnan
aFnan
aFnan
aFnan
aFnan
aFnan
aFnan
aFnan
aFnan
aFnan
aFnan
aFnan
aFnan
aFnan
aFnan
aFnan
aFnan
aFnan
aFnan
aFnan
aFnan
aFnan
aFnan
aFnan
aFnan
aFnan
aFnan
aFnan
aFnan
aFnan
aFnan
aFnan
aFnan
aF0.02
aF0.02
aF0.08
aF0.11
aF0.15
aF0.19
aF0.25
aF0.32
aF0.4
aF0.46
aF0.43
aF0.49
aF0.77
aF0.38
aF0.47
aF0.59
aF0.74
aF0.59
aF0.41
aF0.8
aF1.96
aF1.13
aF0.65
aF2.42
aF2.21
aF3.48
aF4.74
aF5.16
aF5.56
aF5.91
aF5.66
aF2.22
aF3.52
aF3.71
aF4.42
aF5.89
aF5.94
aF6.06
aF6.12
assS'Tmodule'
p181
(dp182
S'19761'
p183
(lp184
F9.35
aF8.9
aF8.77
aF8.84
aF8.73
aF8.57
aF8.84
aF8.78
aF8.28
aF7.64
aF7.08
aF7.02
aF7.41
aF8.41
aF9.89
aF10.22
aF10.33
aF10.21
aF10.17
aF10.43
aF10.3
aF9.94
aF9.87
aF9.87
aF9.75
aF9.54
aF9.2
aF9.99
aF10.25
aF10.2
aF9.99
aF10.04
aF10.23
aF10.39
aF10.57
aF10.97
aF11.27
aF11.27
aF11.15
aF10.87
aF10.82
aF10.74
aF10.77
aF10.54
aF10.57
aF10.69
aF10.93
aF10.88
aF10.78
aF10.7
aF10.82
aF10.92
aF11.12
aF10.76
aF10.5
aF10.25
aF10.08
aF10.05
aF9.91
aF9.72
aF9.59
aF9.46
aF9.53
aF9.59
aF9.59
aF9.46
aF9.47
aF9.17
aF8.88
aF8.95
aF8.65
aF8.62
aF8.58
aF9.02
aF9.15
aF8.86
aF9.03
aF9.16
aF9.36
aF9.46
aF9.12
aF9.46
aF9.63
aF10.2
aF10.12
aF9.79
aF9.3
aF8.96
aF8.41
aF8.24
aF9.08
aF9.91
aF10.22
aF10.48
aF10.56
aF10.5
aF10.47
aF10.45
aF10.72
aF10.93
aF11.26
aF11.17
aF11.23
aF11.36
aF10.8
aF10.1
aF9.89
aF10.79
aF11.02
aF11.1
aF10.08
aF10.95
aF12.56
aF13.87
aF15.79
aF16.68
aF17.57
aF17.74
aF17.4
aF15.38
aF14.09
aF15.19
aF15.23
aF16.43
aF16.97
aF17.15
aF17.1
assS'En_meter'
p185
(dp186
S'2110110152'
p187
(lp188
Fnan
aFnan
aFnan
aFnan
aFnan
aFnan
aFnan
aFnan
aFnan
aFnan
aFnan
aFnan
aFnan
aFnan
aFnan
aFnan
aFnan
aFnan
aFnan
aFnan
aFnan
aFnan
aFnan
aFnan
aFnan
aFnan
aFnan
aFnan
aFnan
aFnan
aFnan
aFnan
aFnan
aFnan
aFnan
aFnan
aFnan
aFnan
aFnan
aFnan
aFnan
aFnan
aFnan
aFnan
aFnan
aFnan
aFnan
aFnan
aFnan
aFnan
aFnan
aFnan
aFnan
aFnan
aFnan
aFnan
aFnan
aFnan
aFnan
aFnan
aFnan
aFnan
aFnan
aFnan
aFnan
aFnan
aFnan
aFnan
aFnan
aFnan
aFnan
aFnan
aFnan
aFnan
aFnan
aFnan
aFnan
aFnan
aFnan
aFnan
aFnan
aFnan
aFnan
aFnan
aFnan
aFnan
aFnan
aFnan
aF17425.77
aF17425.77
aF17425.78
aF17425.79
aF17425.81
aF17425.84
aF17425.87
aF17425.92
aF17425.97
aF17426.04
aF17426.09
aF17426.16
aF17426.24
aF17426.29
aF17426.36
aF17426.44
aF17426.56
aF17426.66
aF17426.72
aF17426.85
aF17427.16
aF17427.34
aF17427.45
aF17427.87
aF17428.27
aF17428.82
aF17429.68
aF17430.51
aF17431.42
aF17432.36
aF17433.38
aF17433.72
aF17434.33
aF17434.94
aF17435.69
aF17436.7
aF17437.64
aF17438.71
aF17439.71
asS'2110115583'
p189
(lp190
Fnan
aFnan
aFnan
aFnan
aFnan
aFnan
aFnan
aFnan
aFnan
aFnan
aFnan
aFnan
aFnan
aFnan
aFnan
aFnan
aFnan
aFnan
aFnan
aFnan
aFnan
aFnan
aFnan
aFnan
aFnan
aFnan
aFnan
aFnan
aFnan
aFnan
aFnan
aFnan
aFnan
aFnan
aFnan
aFnan
aFnan
aFnan
aFnan
aFnan
aFnan
aFnan
aFnan
aFnan
aFnan
aFnan
aFnan
aFnan
aFnan
aFnan
aFnan
aFnan
aFnan
aFnan
aFnan
aFnan
aFnan
aFnan
aFnan
aFnan
aFnan
aFnan
aFnan
aFnan
aFnan
aFnan
aFnan
aFnan
aFnan
aFnan
aFnan
aFnan
aFnan
aFnan
aFnan
aFnan
aFnan
aFnan
aFnan
aFnan
aFnan
aFnan
aFnan
aFnan
aFnan
aFnan
aFnan
aFnan
aF18489.8
aF18489.8
aF18489.81
aF18489.82
aF18489.84
aF18489.86
aF18489.9
aF18489.94
aF18490.0
aF18490.06
aF18490.12
aF18490.19
aF18490.25
aF18490.28
aF18490.33
aF18490.41
aF18490.53
aF18490.64
aF18490.69
aF18490.82
aF18491.13
aF18491.31
aF18491.41
aF18491.83
aF18492.22
aF18492.78
aF18493.56
aF18494.45
aF18495.38
aF18496.3
aF18497.23
aF18497.64
aF18498.26
aF18498.87
aF18499.62
aF18500.62
aF18501.57
aF18502.55
aF18503.63
asS'2110115581'
p191
(lp192
Fnan
aFnan
aFnan
aFnan
aFnan
aFnan
aFnan
aFnan
aFnan
aFnan
aFnan
aFnan
aFnan
aFnan
aFnan
aFnan
aFnan
aFnan
aFnan
aFnan
aFnan
aFnan
aFnan
aFnan
aFnan
aFnan
aFnan
aFnan
aFnan
aFnan
aFnan
aFnan
aFnan
aFnan
aFnan
aFnan
aFnan
aFnan
aFnan
aFnan
aFnan
aFnan
aFnan
aFnan
aFnan
aFnan
aFnan
aFnan
aFnan
aFnan
aFnan
aFnan
aFnan
aFnan
aFnan
aFnan
aFnan
aFnan
aFnan
aFnan
aFnan
aFnan
aFnan
aFnan
aFnan
aFnan
aFnan
aFnan
aFnan
aFnan
aFnan
aFnan
aFnan
aFnan
aFnan
aFnan
aFnan
aFnan
aFnan
aFnan
aFnan
aFnan
aFnan
aFnan
aFnan
aFnan
aFnan
aFnan
aF18576.26
aF18576.26
aF18576.27
aF18576.28
aF18576.3
aF18576.33
aF18576.36
aF18576.41
aF18576.46
aF18576.53
aF18576.59
aF18576.65
aF18576.71
aF18576.74
aF18576.8
aF18576.88
aF18577.0
aF18577.1
aF18577.16
aF18577.28
aF18577.6
aF18577.77
aF18577.86
aF18578.29
aF18578.67
aF18579.24
aF18580.02
aF18580.9
aF18581.83
aF18582.75
aF18583.67
aF18584.07
aF18584.7
aF18585.31
aF18586.05
aF18587.04
aF18587.99
aF18588.97
aF18589.94
asS'2110140194'
p193
(lp194
Fnan
aFnan
aFnan
aFnan
aFnan
aFnan
aFnan
aFnan
aFnan
aFnan
aFnan
aFnan
aFnan
aFnan
aFnan
aFnan
aFnan
aFnan
aFnan
aFnan
aFnan
aFnan
aFnan
aFnan
aFnan
aFnan
aFnan
aFnan
aFnan
aFnan
aFnan
aFnan
aFnan
aFnan
aFnan
aFnan
aFnan
aFnan
aFnan
aFnan
aFnan
aFnan
aFnan
aFnan
aFnan
aFnan
aFnan
aFnan
aFnan
aFnan
aFnan
aFnan
aFnan
aFnan
aFnan
aFnan
aFnan
aFnan
aFnan
aFnan
aFnan
aFnan
aFnan
aFnan
aFnan
aFnan
aFnan
aFnan
aFnan
aFnan
aFnan
aFnan
aFnan
aFnan
aFnan
aFnan
aFnan
aFnan
aFnan
aFnan
aFnan
aFnan
aFnan
aFnan
aFnan
aFnan
aFnan
aFnan
aF3766.67
aF3766.67
aF3766.67
aF3766.67
aF3766.67
aF3766.67
aF3766.67
aF3766.67
aF3766.67
aF3766.67
aF3766.67
aF3766.67
aF3766.67
aF3766.67
aF3766.67
aF3766.67
aF3766.67
aF3766.67
aF3766.67
aF3766.67
aF3766.67
aF3766.67
aF3766.67
aF3766.67
aF3766.67
aF3766.67
aF3766.67
aF3766.67
aF3766.67
aF3766.67
aF3766.67
aF3766.67
aF3766.67
aF3766.67
aF3766.67
aF3766.67
aF3766.67
aF3766.67
aF3766.67
asS'2110111261'
p195
(lp196
Fnan
aFnan
aFnan
aFnan
aFnan
aFnan
aFnan
aFnan
aFnan
aFnan
aFnan
aFnan
aFnan
aFnan
aFnan
aFnan
aFnan
aFnan
aFnan
aFnan
aFnan
aFnan
aFnan
aFnan
aFnan
aFnan
aFnan
aFnan
aFnan
aFnan
aFnan
aFnan
aFnan
aFnan
aFnan
aFnan
aFnan
aFnan
aFnan
aFnan
aFnan
aFnan
aFnan
aFnan
aFnan
aFnan
aFnan
aFnan
aFnan
aFnan
aFnan
aFnan
aFnan
aFnan
aFnan
aFnan
aFnan
aFnan
aFnan
aFnan
aFnan
aFnan
aFnan
aFnan
aFnan
aFnan
aFnan
aFnan
aFnan
aFnan
aFnan
aFnan
aFnan
aFnan
aFnan
aFnan
aFnan
aFnan
aFnan
aFnan
aFnan
aFnan
aFnan
aFnan
aFnan
aFnan
aFnan
aFnan
aF18928.55
aF18928.55
aF18928.55
aF18928.56
aF18928.58
aF18928.61
aF18928.65
aF18928.7
aF18928.75
aF18928.83
aF18928.89
aF18928.97
aF18929.07
aF18929.12
aF18929.19
aF18929.28
aF18929.4
aF18929.5
aF18929.57
aF18929.7
aF18930.0
aF18930.2
aF18930.3
aF18930.73
aF18931.12
aF18931.71
aF18932.5
aF18933.32
aF18934.34
aF18935.28
aF18936.22
aF18936.64
aF18937.21
aF18937.89
aF18938.65
aF18939.58
aF18940.63
aF18941.63
aF18942.63
assS'Etotal'
p197
(dp198
g187
F13.94
sg189
F13.83
sg191
F13.68
sg193
F0.0
sg195
F14.08
ssS'Vdc'
p199
(dp200
S'2110110152'
p201
(lp202
Fnan
aFnan
aFnan
aFnan
aFnan
aFnan
aFnan
aFnan
aFnan
aFnan
aFnan
aFnan
aFnan
aFnan
aFnan
aFnan
aFnan
aFnan
aFnan
aFnan
aFnan
aFnan
aFnan
aFnan
aFnan
aFnan
aFnan
aFnan
aFnan
aFnan
aFnan
aFnan
aFnan
aFnan
aFnan
aFnan
aFnan
aFnan
aFnan
aFnan
aFnan
aFnan
aFnan
aFnan
aFnan
aFnan
aFnan
aFnan
aFnan
aFnan
aFnan
aFnan
aFnan
aFnan
aFnan
aFnan
aFnan
aFnan
aFnan
aFnan
aFnan
aFnan
aFnan
aFnan
aFnan
aFnan
aFnan
aFnan
aFnan
aFnan
aFnan
aFnan
aFnan
aFnan
aFnan
aFnan
aFnan
aFnan
aFnan
aFnan
aFnan
aFnan
aFnan
aFnan
aFnan
aFnan
aFnan
aFnan
aF662.47
aF671.8
aF573.57
aF577.26
aF640.23
aF648.18
aF662.69
aF672.8
aF688.87
aF699.03
aF692.59
aF705.32
aF708.09
aF689.71
aF694.05
aF701.37
aF707.9
aF693.96
aF681.63
aF714.75
aF743.17
aF709.42
aF716.8
aF729.59
aF726.27
aF726.98
aF715.91
aF709.48
aF704.7
aF698.45
aF697.65
aF706.61
aF719.48
aF712.53
aF725.78
aF708.5
aF704.11
aF702.3
aF703.06
asS'2110115583'
p203
(lp204
Fnan
aFnan
aFnan
aFnan
aFnan
aFnan
aFnan
aFnan
aFnan
aFnan
aFnan
aFnan
aFnan
aFnan
aFnan
aFnan
aFnan
aFnan
aFnan
aFnan
aFnan
aFnan
aFnan
aFnan
aFnan
aFnan
aFnan
aFnan
aFnan
aFnan
aFnan
aFnan
aFnan
aFnan
aFnan
aFnan
aFnan
aFnan
aFnan
aFnan
aFnan
aFnan
aFnan
aFnan
aFnan
aFnan
aFnan
aFnan
aFnan
aFnan
aFnan
aFnan
aFnan
aFnan
aFnan
aFnan
aFnan
aFnan
aFnan
aFnan
aFnan
aFnan
aFnan
aFnan
aFnan
aFnan
aFnan
aFnan
aFnan
aFnan
aFnan
aFnan
aFnan
aFnan
aFnan
aFnan
aFnan
aFnan
aFnan
aFnan
aFnan
aFnan
aFnan
aFnan
aFnan
aFnan
aFnan
aFnan
aF668.75
aF697.74
aF588.76
aF579.61
aF640.66
aF652.79
aF664.88
aF680.81
aF694.75
aF706.83
aF701.06
aF714.21
aF702.53
aF702.03
aF704.75
aF709.28
aF714.86
aF702.19
aF687.9
aF713.54
aF743.12
aF721.55
aF720.74
aF745.71
aF749.89
aF736.65
aF717.36
aF710.98
aF707.26
aF700.24
aF703.6
aF713.22
aF719.18
aF717.44
aF712.16
aF706.77
aF703.05
aF702.09
aF699.41
asS'2110115581'
p205
(lp206
Fnan
aFnan
aFnan
aFnan
aFnan
aFnan
aFnan
aFnan
aFnan
aFnan
aFnan
aFnan
aFnan
aFnan
aFnan
aFnan
aFnan
aFnan
aFnan
aFnan
aFnan
aFnan
aFnan
aFnan
aFnan
aFnan
aFnan
aFnan
aFnan
aFnan
aFnan
aFnan
aFnan
aFnan
aFnan
aFnan
aFnan
aFnan
aFnan
aFnan
aFnan
aFnan
aFnan
aFnan
aFnan
aFnan
aFnan
aFnan
aFnan
aFnan
aFnan
aFnan
aFnan
aFnan
aFnan
aFnan
aFnan
aFnan
aFnan
aFnan
aFnan
aFnan
aFnan
aFnan
aFnan
aFnan
aFnan
aFnan
aFnan
aFnan
aFnan
aFnan
aFnan
aFnan
aFnan
aFnan
aFnan
aFnan
aFnan
aFnan
aFnan
aFnan
aFnan
aFnan
aFnan
aFnan
aFnan
aFnan
aF676.13
aF688.56
aF577.43
aF578.28
aF638.93
aF651.82
aF664.16
aF677.12
aF693.24
aF703.08
aF697.58
aF709.55
aF715.21
aF692.43
aF698.6
aF701.44
aF712.14
aF715.37
aF687.74
aF714.38
aF738.83
aF716.83
aF714.77
aF728.93
aF728.8
aF727.13
aF714.65
aF707.03
aF704.29
aF701.03
aF704.6
aF706.8
aF717.98
aF717.9
aF734.19
aF705.93
aF703.14
aF699.97
aF697.68
asS'2110140194'
p207
(lp208
Fnan
aFnan
aFnan
aFnan
aFnan
aFnan
aFnan
aFnan
aFnan
aFnan
aFnan
aFnan
aFnan
aFnan
aFnan
aFnan
aFnan
aFnan
aFnan
aFnan
aFnan
aFnan
aFnan
aFnan
aFnan
aFnan
aFnan
aFnan
aFnan
aFnan
aFnan
aFnan
aFnan
aFnan
aFnan
aFnan
aFnan
aFnan
aFnan
aFnan
aFnan
aFnan
aFnan
aFnan
aFnan
aFnan
aFnan
aFnan
aFnan
aFnan
aFnan
aFnan
aFnan
aFnan
aFnan
aFnan
aFnan
aFnan
aFnan
aFnan
aFnan
aFnan
aFnan
aFnan
aFnan
aFnan
aFnan
aFnan
aFnan
aFnan
aFnan
aFnan
aFnan
aFnan
aFnan
aFnan
aFnan
aFnan
aFnan
aFnan
aFnan
aFnan
aFnan
aFnan
aFnan
aFnan
aFnan
aFnan
aF675.82
aF700.81
aF726.46
aF746.6
aF759.57
aF769.54
aF781.51
aF791.73
aF800.25
aF805.32
aF800.6
aF806.03
aF811.66
aF793.86
aF802.63
aF813.83
aF819.96
aF816.57
aF804.89
aF829.4
aF857.58
aF824.87
aF824.25
aF860.52
aF849.78
aF866.37
aF865.26
aF861.13
aF858.95
aF859.4
aF856.9
aF834.47
aF867.36
aF859.34
aF864.05
aF867.66
aF864.47
aF863.05
aF863.08
asS'2110111261'
p209
(lp210
Fnan
aFnan
aFnan
aFnan
aFnan
aFnan
aFnan
aFnan
aFnan
aFnan
aFnan
aFnan
aFnan
aFnan
aFnan
aFnan
aFnan
aFnan
aFnan
aFnan
aFnan
aFnan
aFnan
aFnan
aFnan
aFnan
aFnan
aFnan
aFnan
aFnan
aFnan
aFnan
aFnan
aFnan
aFnan
aFnan
aFnan
aFnan
aFnan
aFnan
aFnan
aFnan
aFnan
aFnan
aFnan
aFnan
aFnan
aFnan
aFnan
aFnan
aFnan
aFnan
aFnan
aFnan
aFnan
aFnan
aFnan
aFnan
aFnan
aFnan
aFnan
aFnan
aFnan
aFnan
aFnan
aFnan
aFnan
aFnan
aFnan
aFnan
aFnan
aFnan
aFnan
aFnan
aFnan
aFnan
aFnan
aFnan
aFnan
aFnan
aFnan
aFnan
aFnan
aFnan
aFnan
aFnan
aFnan
aFnan
aF669.59
aF676.22
aF573.9
aF580.68
aF639.93
aF649.2
aF661.24
aF677.25
aF689.8
aF698.51
aF698.17
aF701.49
aF703.79
aF686.9
aF695.8
aF701.36
aF718.24
aF700.14
aF686.3
aF712.81
aF737.45
aF717.98
aF714.45
aF744.33
aF740.12
aF728.37
aF713.65
aF709.94
aF705.46
aF701.18
aF703.53
aF709.9
aF713.59
aF711.74
aF709.12
aF706.39
aF705.36
aF700.56
aF702.59
assS'Pac'
p211
(dp212
S'2110110152'
p213
(lp214
Fnan
aFnan
aFnan
aFnan
aFnan
aFnan
aFnan
aFnan
aFnan
aFnan
aFnan
aFnan
aFnan
aFnan
aFnan
aFnan
aFnan
aFnan
aFnan
aFnan
aFnan
aFnan
aFnan
aFnan
aFnan
aFnan
aFnan
aFnan
aFnan
aFnan
aFnan
aFnan
aFnan
aFnan
aFnan
aFnan
aFnan
aFnan
aFnan
aFnan
aFnan
aFnan
aFnan
aFnan
aFnan
aFnan
aFnan
aFnan
aFnan
aFnan
aFnan
aFnan
aFnan
aFnan
aFnan
aFnan
aFnan
aFnan
aFnan
aFnan
aFnan
aFnan
aFnan
aFnan
aFnan
aFnan
aFnan
aFnan
aFnan
aFnan
aFnan
aFnan
aFnan
aFnan
aFnan
aFnan
aFnan
aFnan
aFnan
aFnan
aFnan
aFnan
aFnan
aFnan
aFnan
aFnan
aFnan
aFnan
aF0.0
aF5.09
aF73.75
aF149.27
aF218.27
aF308.67
aF428.78
aF549.25
aF667.42
aF785.0
aF702.17
aF807.17
aF911.45
aF607.91
aF791.92
aF1070.67
aF1347.83
aF1233.83
aF735.3
aF1464.0
aF3817.42
aF2145.8
aF1445.33
aF5437.91
aF4243.64
aF7206.45
aF9683.0
aF10404.4
aF11110.08
aF11763.91
aF10741.18
aF4049.08
aF7541.8
aF7413.4
aF8858.25
aF11828.75
aF11822.8
aF12012.08
aF12124.64
asS'2110115583'
p215
(lp216
Fnan
aFnan
aFnan
aFnan
aFnan
aFnan
aFnan
aFnan
aFnan
aFnan
aFnan
aFnan
aFnan
aFnan
aFnan
aFnan
aFnan
aFnan
aFnan
aFnan
aFnan
aFnan
aFnan
aFnan
aFnan
aFnan
aFnan
aFnan
aFnan
aFnan
aFnan
aFnan
aFnan
aFnan
aFnan
aFnan
aFnan
aFnan
aFnan
aFnan
aFnan
aFnan
aFnan
aFnan
aFnan
aFnan
aFnan
aFnan
aFnan
aFnan
aFnan
aFnan
aFnan
aFnan
aFnan
aFnan
aFnan
aFnan
aFnan
aFnan
aFnan
aFnan
aFnan
aFnan
aFnan
aFnan
aFnan
aFnan
aFnan
aFnan
aFnan
aFnan
aFnan
aFnan
aFnan
aFnan
aFnan
aFnan
aFnan
aFnan
aFnan
aFnan
aFnan
aFnan
aFnan
aFnan
aFnan
aFnan
aF0.0
aF0.0
aF69.92
aF142.3
aF221.58
aF303.75
aF427.33
aF542.17
aF666.58
aF778.6
aF695.0
aF796.42
aF694.45
aF371.0
aF658.58
aF1067.22
aF1337.92
aF1181.75
aF734.9
aF1477.58
aF3846.08
aF2096.9
aF1407.17
aF5283.18
aF4101.0
aF7118.82
aF9567.91
aF10320.27
aF11090.83
aF11740.36
aF11310.0
aF4249.5
aF7153.18
aF7388.2
aF8868.42
aF11796.83
aF11803.6
aF11987.45
aF12108.33
asS'2110115581'
p217
(lp218
Fnan
aFnan
aFnan
aFnan
aFnan
aFnan
aFnan
aFnan
aFnan
aFnan
aFnan
aFnan
aFnan
aFnan
aFnan
aFnan
aFnan
aFnan
aFnan
aFnan
aFnan
aFnan
aFnan
aFnan
aFnan
aFnan
aFnan
aFnan
aFnan
aFnan
aFnan
aFnan
aFnan
aFnan
aFnan
aFnan
aFnan
aFnan
aFnan
aFnan
aFnan
aFnan
aFnan
aFnan
aFnan
aFnan
aFnan
aFnan
aFnan
aFnan
aFnan
aFnan
aFnan
aFnan
aFnan
aFnan
aFnan
aFnan
aFnan
aFnan
aFnan
aFnan
aFnan
aFnan
aFnan
aFnan
aFnan
aFnan
aFnan
aFnan
aFnan
aFnan
aFnan
aFnan
aFnan
aFnan
aFnan
aFnan
aFnan
aFnan
aFnan
aFnan
aFnan
aFnan
aFnan
aFnan
aFnan
aFnan
aF0.0
aF5.0
aF77.42
aF144.9
aF224.42
aF309.58
aF429.89
aF552.92
aF674.83
aF791.5
aF709.25
aF817.33
aF651.1
aF379.25
aF675.83
aF1080.0
aF1356.42
aF1132.58
aF734.7
aF1509.25
aF3812.5
aF2045.7
aF1149.73
aF4983.83
aF4414.1
aF6878.08
aF9537.91
aF10265.64
aF11014.67
aF11669.91
aF11188.8
aF4288.92
aF7232.0
aF7322.5
aF8743.83
aF11741.42
aF11750.9
aF11938.36
aF12063.45
asS'2110140194'
p219
(lp220
Fnan
aFnan
aFnan
aFnan
aFnan
aFnan
aFnan
aFnan
aFnan
aFnan
aFnan
aFnan
aFnan
aFnan
aFnan
aFnan
aFnan
aFnan
aFnan
aFnan
aFnan
aFnan
aFnan
aFnan
aFnan
aFnan
aFnan
aFnan
aFnan
aFnan
aFnan
aFnan
aFnan
aFnan
aFnan
aFnan
aFnan
aFnan
aFnan
aFnan
aFnan
aFnan
aFnan
aFnan
aFnan
aFnan
aFnan
aFnan
aFnan
aFnan
aFnan
aFnan
aFnan
aFnan
aFnan
aFnan
aFnan
aFnan
aFnan
aFnan
aFnan
aFnan
aFnan
aFnan
aFnan
aFnan
aFnan
aFnan
aFnan
aFnan
aFnan
aFnan
aFnan
aFnan
aFnan
aFnan
aFnan
aFnan
aFnan
aFnan
aFnan
aFnan
aFnan
aFnan
aFnan
aFnan
aFnan
aFnan
aF0.0
aF0.0
aF0.0
aF0.0
aF0.0
aF0.0
aF0.0
aF0.0
aF0.0
aF0.0
aF0.0
aF0.0
aF0.0
aF0.0
aF0.0
aF0.0
aF0.0
aF0.0
aF0.0
aF0.0
aF0.0
aF0.0
aF0.0
aF0.0
aF0.0
aF0.0
aF0.0
aF0.0
aF0.0
aF0.0
aF0.0
aF0.0
aF0.0
aF0.0
aF0.0
aF0.0
aF0.0
aF0.0
aF0.0
asS'2110111261'
p221
(lp222
Fnan
aFnan
aFnan
aFnan
aFnan
aFnan
aFnan
aFnan
aFnan
aFnan
aFnan
aFnan
aFnan
aFnan
aFnan
aFnan
aFnan
aFnan
aFnan
aFnan
aFnan
aFnan
aFnan
aFnan
aFnan
aFnan
aFnan
aFnan
aFnan
aFnan
aFnan
aFnan
aFnan
aFnan
aFnan
aFnan
aFnan
aFnan
aFnan
aFnan
aFnan
aFnan
aFnan
aFnan
aFnan
aFnan
aFnan
aFnan
aFnan
aFnan
aFnan
aFnan
aFnan
aFnan
aFnan
aFnan
aFnan
aFnan
aFnan
aFnan
aFnan
aFnan
aFnan
aFnan
aFnan
aFnan
aFnan
aFnan
aFnan
aFnan
aFnan
aFnan
aFnan
aFnan
aFnan
aFnan
aFnan
aFnan
aFnan
aFnan
aFnan
aFnan
aFnan
aFnan
aFnan
aFnan
aFnan
aFnan
aF0.0
aF10.58
aF79.92
aF154.9
aF232.75
aF320.73
aF444.5
aF580.75
aF715.09
aF853.09
aF768.33
aF898.83
aF1244.0
aF675.08
aF850.82
aF1118.3
aF1445.82
aF1155.17
aF756.27
aF1565.67
aF4023.36
aF2281.91
aF1234.73
aF5023.17
aF4508.8
aF7139.83
aF9683.18
aF10418.0
aF11204.15
aF11878.18
aF11306.9
aF4508.42
aF7231.1
aF7443.36
aF9029.0
aF11944.91
aF11966.55
aF12178.55
aF12307.64
assS'SN'
p223
(dp224
S'2110110152'
p225
(lp226
Fnan
aFnan
aFnan
aFnan
aFnan
aFnan
aFnan
aFnan
aFnan
aFnan
aFnan
aFnan
aFnan
aFnan
aFnan
aFnan
aFnan
aFnan
aFnan
aFnan
aFnan
aFnan
aFnan
aFnan
aFnan
aFnan
aFnan
aFnan
aFnan
aFnan
aFnan
aFnan
aFnan
aFnan
aFnan
aFnan
aFnan
aFnan
aFnan
aFnan
aFnan
aFnan
aFnan
aFnan
aFnan
aFnan
aFnan
aFnan
aFnan
aFnan
aFnan
aFnan
aFnan
aFnan
aFnan
aFnan
aFnan
aFnan
aFnan
aFnan
aFnan
aFnan
aFnan
aFnan
aFnan
aFnan
aFnan
aFnan
aFnan
aFnan
aFnan
aFnan
aFnan
aFnan
aFnan
aFnan
aFnan
aFnan
aFnan
aFnan
aFnan
aFnan
aFnan
aFnan
aFnan
aFnan
aFnan
aFnan
aF2110110152.0
aF2110110152.0
aF2110110152.0
aF2110110152.0
aF2110110152.0
aF2110110152.0
aF2110110152.0
aF2110110152.0
aF2110110152.0
aF2110110152.0
aF2110110152.0
aF2110110152.0
aF2110110152.0
aF2110110152.0
aF2110110152.0
aF2110110152.0
aF2110110152.0
aF2110110152.0
aF2110110152.0
aF2110110152.0
aF2110110152.0
aF2110110152.0
aF2110110152.0
aF2110110152.0
aF2110110152.0
aF2110110152.0
aF2110110152.0
aF2110110152.0
aF2110110152.0
aF2110110152.0
aF2110110152.0
aF2110110152.0
aF2110110152.0
aF2110110152.0
aF2110110152.0
aF2110110152.0
aF2110110152.0
aF2110110152.0
aF2110110152.0
asS'2110115583'
p227
(lp228
Fnan
aFnan
aFnan
aFnan
aFnan
aFnan
aFnan
aFnan
aFnan
aFnan
aFnan
aFnan
aFnan
aFnan
aFnan
aFnan
aFnan
aFnan
aFnan
aFnan
aFnan
aFnan
aFnan
aFnan
aFnan
aFnan
aFnan
aFnan
aFnan
aFnan
aFnan
aFnan
aFnan
aFnan
aFnan
aFnan
aFnan
aFnan
aFnan
aFnan
aFnan
aFnan
aFnan
aFnan
aFnan
aFnan
aFnan
aFnan
aFnan
aFnan
aFnan
aFnan
aFnan
aFnan
aFnan
aFnan
aFnan
aFnan
aFnan
aFnan
aFnan
aFnan
aFnan
aFnan
aFnan
aFnan
aFnan
aFnan
aFnan
aFnan
aFnan
aFnan
aFnan
aFnan
aFnan
aFnan
aFnan
aFnan
aFnan
aFnan
aFnan
aFnan
aFnan
aFnan
aFnan
aFnan
aFnan
aFnan
aF2110115583.0
aF2110115583.0
aF2110115583.0
aF2110115583.0
aF2110115583.0
aF2110115583.0
aF2110115583.0
aF2110115583.0
aF2110115583.0
aF2110115583.0
aF2110115583.0
aF2110115583.0
aF2110115583.0
aF2110115583.0
aF2110115583.0
aF2110115583.0
aF2110115583.0
aF2110115583.0
aF2110115583.0
aF2110115583.0
aF2110115583.0
aF2110115583.0
aF2110115583.0
aF2110115583.0
aF2110115583.0
aF2110115583.0
aF2110115583.0
aF2110115583.0
aF2110115583.0
aF2110115583.0
aF2110115583.0
aF2110115583.0
aF2110115583.0
aF2110115583.0
aF2110115583.0
aF2110115583.0
aF2110115583.0
aF2110115583.0
aF2110115583.0
asS'2110115581'
p229
(lp230
Fnan
aFnan
aFnan
aFnan
aFnan
aFnan
aFnan
aFnan
aFnan
aFnan
aFnan
aFnan
aFnan
aFnan
aFnan
aFnan
aFnan
aFnan
aFnan
aFnan
aFnan
aFnan
aFnan
aFnan
aFnan
aFnan
aFnan
aFnan
aFnan
aFnan
aFnan
aFnan
aFnan
aFnan
aFnan
aFnan
aFnan
aFnan
aFnan
aFnan
aFnan
aFnan
aFnan
aFnan
aFnan
aFnan
aFnan
aFnan
aFnan
aFnan
aFnan
aFnan
aFnan
aFnan
aFnan
aFnan
aFnan
aFnan
aFnan
aFnan
aFnan
aFnan
aFnan
aFnan
aFnan
aFnan
aFnan
aFnan
aFnan
aFnan
aFnan
aFnan
aFnan
aFnan
aFnan
aFnan
aFnan
aFnan
aFnan
aFnan
aFnan
aFnan
aFnan
aFnan
aFnan
aFnan
aFnan
aFnan
aF2110115581.0
aF2110115581.0
aF2110115581.0
aF2110115581.0
aF2110115581.0
aF2110115581.0
aF2110115581.0
aF2110115581.0
aF2110115581.0
aF2110115581.0
aF2110115581.0
aF2110115581.0
aF2110115581.0
aF2110115581.0
aF2110115581.0
aF2110115581.0
aF2110115581.0
aF2110115581.0
aF2110115581.0
aF2110115581.0
aF2110115581.0
aF2110115581.0
aF2110115581.0
aF2110115581.0
aF2110115581.0
aF2110115581.0
aF2110115581.0
aF2110115581.0
aF2110115581.0
aF2110115581.0
aF2110115581.0
aF2110115581.0
aF2110115581.0
aF2110115581.0
aF2110115581.0
aF2110115581.0
aF2110115581.0
aF2110115581.0
aF2110115581.0
asS'2110140194'
p231
(lp232
Fnan
aFnan
aFnan
aFnan
aFnan
aFnan
aFnan
aFnan
aFnan
aFnan
aFnan
aFnan
aFnan
aFnan
aFnan
aFnan
aFnan
aFnan
aFnan
aFnan
aFnan
aFnan
aFnan
aFnan
aFnan
aFnan
aFnan
aFnan
aFnan
aFnan
aFnan
aFnan
aFnan
aFnan
aFnan
aFnan
aFnan
aFnan
aFnan
aFnan
aFnan
aFnan
aFnan
aFnan
aFnan
aFnan
aFnan
aFnan
aFnan
aFnan
aFnan
aFnan
aFnan
aFnan
aFnan
aFnan
aFnan
aFnan
aFnan
aFnan
aFnan
aFnan
aFnan
aFnan
aFnan
aFnan
aFnan
aFnan
aFnan
aFnan
aFnan
aFnan
aFnan
aFnan
aFnan
aFnan
aFnan
aFnan
aFnan
aFnan
aFnan
aFnan
aFnan
aFnan
aFnan
aFnan
aFnan
aFnan
aF2110140194.0
aF2110140194.0
aF2110140194.0
aF2110140194.0
aF2110140194.0
aF2110140194.0
aF2110140194.0
aF2110140194.0
aF2110140194.0
aF2110140194.0
aF2110140194.0
aF2110140194.0
aF2110140194.0
aF2110140194.0
aF2110140194.0
aF2110140194.0
aF2110140194.0
aF2110140194.0
aF2110140194.0
aF2110140194.0
aF2110140194.0
aF2110140194.0
aF2110140194.0
aF2110140194.0
aF2110140194.0
aF2110140194.0
aF2110140194.0
aF2110140194.0
aF2110140194.0
aF2110140194.0
aF2110140194.0
aF2110140194.0
aF2110140194.0
aF2110140194.0
aF2110140194.0
aF2110140194.0
aF2110140194.0
aF2110140194.0
aF2110140194.0
asS'2110111261'
p233
(lp234
Fnan
aFnan
aFnan
aFnan
aFnan
aFnan
aFnan
aFnan
aFnan
aFnan
aFnan
aFnan
aFnan
aFnan
aFnan
aFnan
aFnan
aFnan
aFnan
aFnan
aFnan
aFnan
aFnan
aFnan
aFnan
aFnan
aFnan
aFnan
aFnan
aFnan
aFnan
aFnan
aFnan
aFnan
aFnan
aFnan
aFnan
aFnan
aFnan
aFnan
aFnan
aFnan
aFnan
aFnan
aFnan
aFnan
aFnan
aFnan
aFnan
aFnan
aFnan
aFnan
aFnan
aFnan
aFnan
aFnan
aFnan
aFnan
aFnan
aFnan
aFnan
aFnan
aFnan
aFnan
aFnan
aFnan
aFnan
aFnan
aFnan
aFnan
aFnan
aFnan
aFnan
aFnan
aFnan
aFnan
aFnan
aFnan
aFnan
aFnan
aFnan
aFnan
aFnan
aFnan
aFnan
aFnan
aFnan
aFnan
aF2110111261.0
aF2110111261.0
aF2110111261.0
aF2110111261.0
aF2110111261.0
aF2110111261.0
aF2110111261.0
aF2110111261.0
aF2110111261.0
aF2110111261.0
aF2110111261.0
aF2110111261.0
aF2110111261.0
aF2110111261.0
aF2110111261.0
aF2110111261.0
aF2110111261.0
aF2110111261.0
aF2110111261.0
aF2110111261.0
aF2110111261.0
aF2110111261.0
aF2110111261.0
aF2110111261.0
aF2110111261.0
aF2110111261.0
aF2110111261.0
aF2110111261.0
aF2110111261.0
aF2110111261.0
aF2110111261.0
aF2110111261.0
aF2110111261.0
aF2110111261.0
aF2110111261.0
aF2110111261.0
aF2110111261.0
aF2110111261.0
aF2110111261.0
assS'PRdaily'
p235
F74.6
sS'Error'
p236
(dp237
S'2110110152'
p238
(lp239
Fnan
aFnan
aFnan
aFnan
aFnan
aFnan
aFnan
aFnan
aFnan
aFnan
aFnan
aFnan
aFnan
aFnan
aFnan
aFnan
aFnan
aFnan
aFnan
aFnan
aFnan
aFnan
aFnan
aFnan
aFnan
aFnan
aFnan
aFnan
aFnan
aFnan
aFnan
aFnan
aFnan
aFnan
aFnan
aFnan
aFnan
aFnan
aFnan
aFnan
aFnan
aFnan
aFnan
aFnan
aFnan
aFnan
aFnan
aFnan
aFnan
aFnan
aFnan
aFnan
aFnan
aFnan
aFnan
aFnan
aFnan
aFnan
aFnan
aFnan
aFnan
aFnan
aFnan
aFnan
aFnan
aFnan
aFnan
aFnan
aFnan
aFnan
aFnan
aFnan
aFnan
aFnan
aFnan
aFnan
aFnan
aFnan
aFnan
aFnan
aFnan
aFnan
aFnan
aFnan
aFnan
aFnan
aFnan
aFnan
aF0.0
aF0.0
aF0.0
aF0.0
aF0.0
aF0.0
aF0.0
aF0.0
aF0.0
aF0.0
aF0.0
aF0.0
aF0.0
aF0.0
aF0.0
aF0.0
aF0.0
aF0.0
aF0.0
aF0.0
aF0.0
aF0.0
aF0.0
aF0.0
aF0.0
aF0.0
aF0.0
aF0.0
aF0.0
aF0.0
aF0.0
aF0.0
aF0.0
aF0.0
aF0.0
aF0.0
aF0.0
aF0.0
aF0.0
asS'2110115583'
p240
(lp241
Fnan
aFnan
aFnan
aFnan
aFnan
aFnan
aFnan
aFnan
aFnan
aFnan
aFnan
aFnan
aFnan
aFnan
aFnan
aFnan
aFnan
aFnan
aFnan
aFnan
aFnan
aFnan
aFnan
aFnan
aFnan
aFnan
aFnan
aFnan
aFnan
aFnan
aFnan
aFnan
aFnan
aFnan
aFnan
aFnan
aFnan
aFnan
aFnan
aFnan
aFnan
aFnan
aFnan
aFnan
aFnan
aFnan
aFnan
aFnan
aFnan
aFnan
aFnan
aFnan
aFnan
aFnan
aFnan
aFnan
aFnan
aFnan
aFnan
aFnan
aFnan
aFnan
aFnan
aFnan
aFnan
aFnan
aFnan
aFnan
aFnan
aFnan
aFnan
aFnan
aFnan
aFnan
aFnan
aFnan
aFnan
aFnan
aFnan
aFnan
aFnan
aFnan
aFnan
aFnan
aFnan
aFnan
aFnan
aFnan
aF0.0
aF0.0
aF0.0
aF0.0
aF0.0
aF0.0
aF0.0
aF0.0
aF0.0
aF0.0
aF0.0
aF0.0
aF0.0
aF0.0
aF0.0
aF0.0
aF0.0
aF0.0
aF0.0
aF0.0
aF0.0
aF0.0
aF0.0
aF0.0
aF0.0
aF0.0
aF0.0
aF0.0
aF0.0
aF0.0
aF0.0
aF0.0
aF0.0
aF0.0
aF0.0
aF0.0
aF0.0
aF0.0
aF0.0
asS'2110115581'
p242
(lp243
Fnan
aFnan
aFnan
aFnan
aFnan
aFnan
aFnan
aFnan
aFnan
aFnan
aFnan
aFnan
aFnan
aFnan
aFnan
aFnan
aFnan
aFnan
aFnan
aFnan
aFnan
aFnan
aFnan
aFnan
aFnan
aFnan
aFnan
aFnan
aFnan
aFnan
aFnan
aFnan
aFnan
aFnan
aFnan
aFnan
aFnan
aFnan
aFnan
aFnan
aFnan
aFnan
aFnan
aFnan
aFnan
aFnan
aFnan
aFnan
aFnan
aFnan
aFnan
aFnan
aFnan
aFnan
aFnan
aFnan
aFnan
aFnan
aFnan
aFnan
aFnan
aFnan
aFnan
aFnan
aFnan
aFnan
aFnan
aFnan
aFnan
aFnan
aFnan
aFnan
aFnan
aFnan
aFnan
aFnan
aFnan
aFnan
aFnan
aFnan
aFnan
aFnan
aFnan
aFnan
aFnan
aFnan
aFnan
aFnan
aF0.0
aF0.0
aF0.0
aF0.0
aF0.0
aF0.0
aF0.0
aF0.0
aF0.0
aF0.0
aF0.0
aF0.0
aF0.0
aF0.0
aF0.0
aF0.0
aF0.0
aF0.0
aF0.0
aF0.0
aF0.0
aF0.0
aF0.0
aF0.0
aF0.0
aF0.0
aF0.0
aF0.0
aF0.0
aF0.0
aF0.0
aF0.0
aF0.0
aF0.0
aF0.0
aF0.0
aF0.0
aF0.0
aF0.0
asS'2110140194'
p244
(lp245
Fnan
aFnan
aFnan
aFnan
aFnan
aFnan
aFnan
aFnan
aFnan
aFnan
aFnan
aFnan
aFnan
aFnan
aFnan
aFnan
aFnan
aFnan
aFnan
aFnan
aFnan
aFnan
aFnan
aFnan
aFnan
aFnan
aFnan
aFnan
aFnan
aFnan
aFnan
aFnan
aFnan
aFnan
aFnan
aFnan
aFnan
aFnan
aFnan
aFnan
aFnan
aFnan
aFnan
aFnan
aFnan
aFnan
aFnan
aFnan
aFnan
aFnan
aFnan
aFnan
aFnan
aFnan
aFnan
aFnan
aFnan
aFnan
aFnan
aFnan
aFnan
aFnan
aFnan
aFnan
aFnan
aFnan
aFnan
aFnan
aFnan
aFnan
aFnan
aFnan
aFnan
aFnan
aFnan
aFnan
aFnan
aFnan
aFnan
aFnan
aFnan
aFnan
aFnan
aFnan
aFnan
aFnan
aFnan
aFnan
aF0.0
aF55.0
aF55.0
aF55.0
aF55.0
aF55.0
aF55.0
aF55.0
aF55.0
aF55.0
aF55.0
aF55.0
aF55.0
aF55.0
aF55.0
aF55.0
aF55.0
aF55.0
aF55.0
aF55.0
aF55.0
aF55.0
aF55.0
aF55.0
aF55.0
aF55.0
aF55.0
aF55.0
aF55.0
aF55.0
aF55.0
aF55.0
aF55.0
aF55.0
aF55.0
aF55.0
aF55.0
aF55.0
aF55.0
asS'2110111261'
p246
(lp247
Fnan
aFnan
aFnan
aFnan
aFnan
aFnan
aFnan
aFnan
aFnan
aFnan
aFnan
aFnan
aFnan
aFnan
aFnan
aFnan
aFnan
aFnan
aFnan
aFnan
aFnan
aFnan
aFnan
aFnan
aFnan
aFnan
aFnan
aFnan
aFnan
aFnan
aFnan
aFnan
aFnan
aFnan
aFnan
aFnan
aFnan
aFnan
aFnan
aFnan
aFnan
aFnan
aFnan
aFnan
aFnan
aFnan
aFnan
aFnan
aFnan
aFnan
aFnan
aFnan
aFnan
aFnan
aFnan
aFnan
aFnan
aFnan
aFnan
aFnan
aFnan
aFnan
aFnan
aFnan
aFnan
aFnan
aFnan
aFnan
aFnan
aFnan
aFnan
aFnan
aFnan
aFnan
aFnan
aFnan
aFnan
aFnan
aFnan
aFnan
aFnan
aFnan
aFnan
aFnan
aFnan
aFnan
aFnan
aFnan
aF0.0
aF0.0
aF0.0
aF0.0
aF0.0
aF0.0
aF0.0
aF0.0
aF0.0
aF0.0
aF0.0
aF0.0
aF0.0
aF0.0
aF0.0
aF0.0
aF0.0
aF0.0
aF0.0
aF0.0
aF0.0
aF0.0
aF0.0
aF0.0
aF0.0
aF0.0
aF0.0
aF0.0
aF0.0
aF0.0
aF0.0
aF0.0
aF0.0
aF0.0
aF0.0
aF0.0
aF0.0
aF0.0
aF0.0
assS'Edaily'
p248
F55.5
sS'Pdc'
p249
(dp250
S'2110110152'
p251
(lp252
Fnan
aFnan
aFnan
aFnan
aFnan
aFnan
aFnan
aFnan
aFnan
aFnan
aFnan
aFnan
aFnan
aFnan
aFnan
aFnan
aFnan
aFnan
aFnan
aFnan
aFnan
aFnan
aFnan
aFnan
aFnan
aFnan
aFnan
aFnan
aFnan
aFnan
aFnan
aFnan
aFnan
aFnan
aFnan
aFnan
aFnan
aFnan
aFnan
aFnan
aFnan
aFnan
aFnan
aFnan
aFnan
aFnan
aFnan
aFnan
aFnan
aFnan
aFnan
aFnan
aFnan
aFnan
aFnan
aFnan
aFnan
aFnan
aFnan
aFnan
aFnan
aFnan
aFnan
aFnan
aFnan
aFnan
aFnan
aFnan
aFnan
aFnan
aFnan
aFnan
aFnan
aFnan
aFnan
aFnan
aFnan
aFnan
aFnan
aFnan
aFnan
aFnan
aFnan
aFnan
aFnan
aFnan
aFnan
aFnan
aF28.0
aF38.73
aF83.17
aF126.55
aF178.91
aF229.67
aF307.78
aF394.33
aF489.42
aF565.4
aF508.25
aF588.0
aF618.55
aF446.64
aF572.67
aF768.22
aF963.67
aF872.67
aF532.3
aF1048.08
aF2701.0
aF1484.7
aF1072.58
aF3747.82
aF2919.0
aF4998.0
aF6737.83
aF7235.8
aF7720.33
aF8169.18
aF7465.73
aF2808.33
aF5278.0
aF5138.1
aF6169.58
aF8200.67
aF8200.4
aF8333.08
aF8408.73
asS'2110115583'
p253
(lp254
Fnan
aFnan
aFnan
aFnan
aFnan
aFnan
aFnan
aFnan
aFnan
aFnan
aFnan
aFnan
aFnan
aFnan
aFnan
aFnan
aFnan
aFnan
aFnan
aFnan
aFnan
aFnan
aFnan
aFnan
aFnan
aFnan
aFnan
aFnan
aFnan
aFnan
aFnan
aFnan
aFnan
aFnan
aFnan
aFnan
aFnan
aFnan
aFnan
aFnan
aFnan
aFnan
aFnan
aFnan
aFnan
aFnan
aFnan
aFnan
aFnan
aFnan
aFnan
aFnan
aFnan
aFnan
aFnan
aFnan
aFnan
aFnan
aFnan
aFnan
aFnan
aFnan
aFnan
aFnan
aFnan
aFnan
aFnan
aFnan
aFnan
aFnan
aFnan
aFnan
aFnan
aFnan
aFnan
aFnan
aFnan
aFnan
aFnan
aFnan
aFnan
aFnan
aFnan
aFnan
aFnan
aFnan
aFnan
aFnan
aF32.8
aF33.45
aF84.5
aF129.1
aF182.67
aF237.17
aF316.78
aF404.83
aF498.67
aF577.9
aF522.75
aF595.17
aF652.36
aF458.36
aF579.5
aF782.78
aF969.25
aF847.33
aF545.6
aF1066.75
aF2705.58
aF1461.5
aF1031.67
aF3453.36
aF2928.82
aF5020.18
aF6616.64
aF7147.18
aF7685.25
aF8135.0
aF7781.8
aF2984.92
aF4996.18
aF5126.8
aF6211.58
aF8182.33
aF8187.6
aF8306.73
aF8393.25
asS'2110115581'
p255
(lp256
Fnan
aFnan
aFnan
aFnan
aFnan
aFnan
aFnan
aFnan
aFnan
aFnan
aFnan
aFnan
aFnan
aFnan
aFnan
aFnan
aFnan
aFnan
aFnan
aFnan
aFnan
aFnan
aFnan
aFnan
aFnan
aFnan
aFnan
aFnan
aFnan
aFnan
aFnan
aFnan
aFnan
aFnan
aFnan
aFnan
aFnan
aFnan
aFnan
aFnan
aFnan
aFnan
aFnan
aFnan
aFnan
aFnan
aFnan
aFnan
aFnan
aFnan
aFnan
aFnan
aFnan
aFnan
aFnan
aFnan
aFnan
aFnan
aFnan
aFnan
aFnan
aFnan
aFnan
aFnan
aFnan
aFnan
aFnan
aFnan
aFnan
aFnan
aFnan
aFnan
aFnan
aFnan
aFnan
aFnan
aFnan
aFnan
aFnan
aFnan
aFnan
aFnan
aFnan
aFnan
aFnan
aFnan
aFnan
aFnan
aF8.8
aF14.18
aF69.25
aF114.2
aF165.0
aF220.33
aF297.89
aF386.75
aF480.0
aF551.7
aF502.33
aF569.75
aF548.6
aF443.83
aF560.42
aF754.56
aF943.92
aF791.92
aF518.5
aF1049.92
aF2660.17
aF1418.4
aF801.18
aF3422.25
aF3108.3
aF4789.5
aF6609.27
aF7117.09
aF7631.08
aF8080.0
aF7727.6
aF2959.58
aF5007.64
aF5052.5
aF6066.33
aF8134.67
aF8136.6
aF8257.45
aF8338.45
asS'2110140194'
p257
(lp258
Fnan
aFnan
aFnan
aFnan
aFnan
aFnan
aFnan
aFnan
aFnan
aFnan
aFnan
aFnan
aFnan
aFnan
aFnan
aFnan
aFnan
aFnan
aFnan
aFnan
aFnan
aFnan
aFnan
aFnan
aFnan
aFnan
aFnan
aFnan
aFnan
aFnan
aFnan
aFnan
aFnan
aFnan
aFnan
aFnan
aFnan
aFnan
aFnan
aFnan
aFnan
aFnan
aFnan
aFnan
aFnan
aFnan
aFnan
aFnan
aFnan
aFnan
aFnan
aFnan
aFnan
aFnan
aFnan
aFnan
aFnan
aFnan
aFnan
aFnan
aFnan
aFnan
aFnan
aFnan
aFnan
aFnan
aFnan
aFnan
aFnan
aFnan
aFnan
aFnan
aFnan
aFnan
aFnan
aFnan
aFnan
aFnan
aFnan
aFnan
aFnan
aFnan
aFnan
aFnan
aFnan
aFnan
aFnan
aFnan
aF23.0
aF24.0
aF25.0
aF25.73
aF26.0
aF26.33
aF27.0
aF27.0
aF27.55
aF28.0
aF27.67
aF28.0
aF27.7
aF27.0
aF27.75
aF28.0
aF28.18
aF28.17
aF28.73
aF28.45
aF29.67
aF28.45
aF28.18
aF29.58
aF29.4
aF29.82
aF30.0
aF30.0
aF30.0
aF30.0
aF31.0
aF30.0
aF29.92
aF30.82
aF33.45
aF33.5
aF30.0
aF31.17
aF30.0
asS'2110111261'
p259
(lp260
Fnan
aFnan
aFnan
aFnan
aFnan
aFnan
aFnan
aFnan
aFnan
aFnan
aFnan
aFnan
aFnan
aFnan
aFnan
aFnan
aFnan
aFnan
aFnan
aFnan
aFnan
aFnan
aFnan
aFnan
aFnan
aFnan
aFnan
aFnan
aFnan
aFnan
aFnan
aFnan
aFnan
aFnan
aFnan
aFnan
aFnan
aFnan
aFnan
aFnan
aFnan
aFnan
aFnan
aFnan
aFnan
aFnan
aFnan
aFnan
aFnan
aFnan
aFnan
aFnan
aFnan
aFnan
aFnan
aFnan
aFnan
aFnan
aFnan
aFnan
aFnan
aFnan
aFnan
aFnan
aFnan
aFnan
aFnan
aFnan
aFnan
aFnan
aFnan
aFnan
aFnan
aFnan
aFnan
aFnan
aFnan
aFnan
aFnan
aFnan
aFnan
aFnan
aFnan
aFnan
aFnan
aFnan
aFnan
aFnan
aF24.75
aF32.75
aF83.58
aF128.9
aF181.17
aF234.36
aF313.8
aF412.25
aF510.73
aF600.55
aF546.0
aF630.25
aF796.4
aF482.67
aF602.73
aF790.9
aF1003.27
aF818.42
aF543.18
aF1102.58
aF2773.73
aF1578.55
aF863.27
aF3384.42
aF3192.6
aF4965.83
aF6658.82
aF7166.6
aF7704.23
aF8178.45
aF7794.8
aF3053.33
aF4970.5
aF5128.91
aF6200.25
aF8227.0
aF8240.45
aF8379.18
aF8472.45
assS'Idc'
p261
(dp262
S'2110110152'
p263
(lp264
Fnan
aFnan
aFnan
aFnan
aFnan
aFnan
aFnan
aFnan
aFnan
aFnan
aFnan
aFnan
aFnan
aFnan
aFnan
aFnan
aFnan
aFnan
aFnan
aFnan
aFnan
aFnan
aFnan
aFnan
aFnan
aFnan
aFnan
aFnan
aFnan
aFnan
aFnan
aFnan
aFnan
aFnan
aFnan
aFnan
aFnan
aFnan
aFnan
aFnan
aFnan
aFnan
aFnan
aFnan
aFnan
aFnan
aFnan
aFnan
aFnan
aFnan
aFnan
aFnan
aFnan
aFnan
aFnan
aFnan
aFnan
aFnan
aFnan
aFnan
aFnan
aFnan
aFnan
aFnan
aFnan
aFnan
aFnan
aFnan
aFnan
aFnan
aFnan
aFnan
aFnan
aFnan
aFnan
aFnan
aFnan
aFnan
aFnan
aFnan
aFnan
aFnan
aFnan
aFnan
aFnan
aFnan
aFnan
aFnan
aF0.04
aF0.06
aF0.15
aF0.22
aF0.28
aF0.35
aF0.47
aF0.59
aF0.71
aF0.81
aF0.73
aF0.83
aF0.87
aF0.65
aF0.83
aF1.09
aF1.36
aF1.25
aF0.78
aF1.46
aF3.63
aF2.07
aF1.49
aF5.15
aF4.01
aF6.87
aF9.41
aF10.2
aF10.96
aF11.7
aF10.69
aF3.99
aF7.34
aF7.2
aF8.51
aF11.58
aF11.65
aF11.87
aF11.96
asS'2110115583'
p265
(lp266
Fnan
aFnan
aFnan
aFnan
aFnan
aFnan
aFnan
aFnan
aFnan
aFnan
aFnan
aFnan
aFnan
aFnan
aFnan
aFnan
aFnan
aFnan
aFnan
aFnan
aFnan
aFnan
aFnan
aFnan
aFnan
aFnan
aFnan
aFnan
aFnan
aFnan
aFnan
aFnan
aFnan
aFnan
aFnan
aFnan
aFnan
aFnan
aFnan
aFnan
aFnan
aFnan
aFnan
aFnan
aFnan
aFnan
aFnan
aFnan
aFnan
aFnan
aFnan
aFnan
aFnan
aFnan
aFnan
aFnan
aFnan
aFnan
aFnan
aFnan
aFnan
aFnan
aFnan
aFnan
aFnan
aFnan
aFnan
aFnan
aFnan
aFnan
aFnan
aFnan
aFnan
aFnan
aFnan
aFnan
aFnan
aFnan
aFnan
aFnan
aFnan
aFnan
aFnan
aFnan
aFnan
aFnan
aFnan
aFnan
aF0.05
aF0.05
aF0.15
aF0.22
aF0.29
aF0.36
aF0.48
aF0.6
aF0.72
aF0.82
aF0.75
aF0.83
aF0.93
aF0.65
aF0.82
aF1.1
aF1.35
aF1.2
aF0.79
aF1.49
aF3.63
aF2.0
aF1.43
aF4.63
aF3.89
aF6.82
aF9.22
aF10.05
aF10.87
aF11.62
aF11.06
aF4.19
aF6.96
aF7.15
aF8.73
aF11.58
aF11.65
aF11.83
aF12.0
asS'2110115581'
p267
(lp268
Fnan
aFnan
aFnan
aFnan
aFnan
aFnan
aFnan
aFnan
aFnan
aFnan
aFnan
aFnan
aFnan
aFnan
aFnan
aFnan
aFnan
aFnan
aFnan
aFnan
aFnan
aFnan
aFnan
aFnan
aFnan
aFnan
aFnan
aFnan
aFnan
aFnan
aFnan
aFnan
aFnan
aFnan
aFnan
aFnan
aFnan
aFnan
aFnan
aFnan
aFnan
aFnan
aFnan
aFnan
aFnan
aFnan
aFnan
aFnan
aFnan
aFnan
aFnan
aFnan
aFnan
aFnan
aFnan
aFnan
aFnan
aFnan
aFnan
aFnan
aFnan
aFnan
aFnan
aFnan
aFnan
aFnan
aFnan
aFnan
aFnan
aFnan
aFnan
aFnan
aFnan
aFnan
aFnan
aFnan
aFnan
aFnan
aFnan
aFnan
aFnan
aFnan
aFnan
aFnan
aFnan
aFnan
aFnan
aFnan
aF0.01
aF0.02
aF0.12
aF0.2
aF0.26
aF0.34
aF0.45
aF0.57
aF0.69
aF0.79
aF0.72
aF0.8
aF0.76
aF0.64
aF0.8
aF1.08
aF1.32
aF1.11
aF0.75
aF1.47
aF3.61
aF1.95
aF1.12
aF4.69
aF4.26
aF6.59
aF9.25
aF10.07
aF10.84
aF11.53
aF10.97
aF4.2
aF6.98
aF7.04
aF8.29
aF11.52
aF11.57
aF11.8
aF11.95
asS'2110140194'
p269
(lp270
Fnan
aFnan
aFnan
aFnan
aFnan
aFnan
aFnan
aFnan
aFnan
aFnan
aFnan
aFnan
aFnan
aFnan
aFnan
aFnan
aFnan
aFnan
aFnan
aFnan
aFnan
aFnan
aFnan
aFnan
aFnan
aFnan
aFnan
aFnan
aFnan
aFnan
aFnan
aFnan
aFnan
aFnan
aFnan
aFnan
aFnan
aFnan
aFnan
aFnan
aFnan
aFnan
aFnan
aFnan
aFnan
aFnan
aFnan
aFnan
aFnan
aFnan
aFnan
aFnan
aFnan
aFnan
aFnan
aFnan
aFnan
aFnan
aFnan
aFnan
aFnan
aFnan
aFnan
aFnan
aFnan
aFnan
aFnan
aFnan
aFnan
aFnan
aFnan
aFnan
aFnan
aFnan
aFnan
aFnan
aFnan
aFnan
aFnan
aFnan
aFnan
aFnan
aFnan
aFnan
aFnan
aFnan
aFnan
aFnan
aF0.04
aF0.04
aF0.04
aF0.04
aF0.04
aF0.04
aF0.04
aF0.04
aF0.04
aF0.04
aF0.04
aF0.04
aF0.04
aF0.04
aF0.04
aF0.04
aF0.04
aF0.04
aF0.04
aF0.04
aF0.04
aF0.04
aF0.04
aF0.04
aF0.04
aF0.04
aF0.04
aF0.04
aF0.04
aF0.04
aF0.04
aF0.04
aF0.04
aF0.04
aF0.04
aF0.04
aF0.04
aF0.04
aF0.04
asS'2110111261'
p271
(lp272
Fnan
aFnan
aFnan
aFnan
aFnan
aFnan
aFnan
aFnan
aFnan
aFnan
aFnan
aFnan
aFnan
aFnan
aFnan
aFnan
aFnan
aFnan
aFnan
aFnan
aFnan
aFnan
aFnan
aFnan
aFnan
aFnan
aFnan
aFnan
aFnan
aFnan
aFnan
aFnan
aFnan
aFnan
aFnan
aFnan
aFnan
aFnan
aFnan
aFnan
aFnan
aFnan
aFnan
aFnan
aFnan
aFnan
aFnan
aFnan
aFnan
aFnan
aFnan
aFnan
aFnan
aFnan
aFnan
aFnan
aFnan
aFnan
aFnan
aFnan
aFnan
aFnan
aFnan
aFnan
aFnan
aFnan
aFnan
aFnan
aFnan
aFnan
aFnan
aFnan
aFnan
aFnan
aFnan
aFnan
aFnan
aFnan
aFnan
aFnan
aFnan
aFnan
aFnan
aFnan
aFnan
aFnan
aFnan
aFnan
aF0.04
aF0.05
aF0.15
aF0.22
aF0.28
aF0.36
aF0.48
aF0.61
aF0.74
aF0.86
aF0.78
aF0.9
aF1.13
aF0.7
aF0.87
aF1.13
aF1.39
aF1.17
aF0.79
aF1.55
aF3.78
aF2.17
aF1.21
aF4.54
aF4.31
aF6.82
aF9.33
aF10.1
aF10.92
aF11.66
aF11.08
aF4.31
aF6.99
aF7.2
aF8.74
aF11.65
aF11.68
aF11.96
aF12.06
assS'Mode'
p273
(dp274
S'2110110152'
p275
(lp276
Fnan
aFnan
aFnan
aFnan
aFnan
aFnan
aFnan
aFnan
aFnan
aFnan
aFnan
aFnan
aFnan
aFnan
aFnan
aFnan
aFnan
aFnan
aFnan
aFnan
aFnan
aFnan
aFnan
aFnan
aFnan
aFnan
aFnan
aFnan
aFnan
aFnan
aFnan
aFnan
aFnan
aFnan
aFnan
aFnan
aFnan
aFnan
aFnan
aFnan
aFnan
aFnan
aFnan
aFnan
aFnan
aFnan
aFnan
aFnan
aFnan
aFnan
aFnan
aFnan
aFnan
aFnan
aFnan
aFnan
aFnan
aFnan
aFnan
aFnan
aFnan
aFnan
aFnan
aFnan
aFnan
aFnan
aFnan
aFnan
aFnan
aFnan
aFnan
aFnan
aFnan
aFnan
aFnan
aFnan
aFnan
aFnan
aFnan
aFnan
aFnan
aFnan
aFnan
aFnan
aFnan
aFnan
aFnan
aFnan
aF7.0
aF1.0
aF1.0
aF1.0
aF1.0
aF1.0
aF1.0
aF1.0
aF1.0
aF1.0
aF1.0
aF1.0
aF1.0
aF1.0
aF1.0
aF1.0
aF1.0
aF1.0
aF1.0
aF1.0
aF1.0
aF1.0
aF1.0
aF1.0
aF1.0
aF1.0
aF1.0
aF1.0
aF1.0
aF1.0
aF1.0
aF1.0
aF1.0
aF1.0
aF1.0
aF1.0
aF1.0
aF1.0
aF1.0
asS'2110115583'
p277
(lp278
Fnan
aFnan
aFnan
aFnan
aFnan
aFnan
aFnan
aFnan
aFnan
aFnan
aFnan
aFnan
aFnan
aFnan
aFnan
aFnan
aFnan
aFnan
aFnan
aFnan
aFnan
aFnan
aFnan
aFnan
aFnan
aFnan
aFnan
aFnan
aFnan
aFnan
aFnan
aFnan
aFnan
aFnan
aFnan
aFnan
aFnan
aFnan
aFnan
aFnan
aFnan
aFnan
aFnan
aFnan
aFnan
aFnan
aFnan
aFnan
aFnan
aFnan
aFnan
aFnan
aFnan
aFnan
aFnan
aFnan
aFnan
aFnan
aFnan
aFnan
aFnan
aFnan
aFnan
aFnan
aFnan
aFnan
aFnan
aFnan
aFnan
aFnan
aFnan
aFnan
aFnan
aFnan
aFnan
aFnan
aFnan
aFnan
aFnan
aFnan
aFnan
aFnan
aFnan
aFnan
aFnan
aFnan
aFnan
aFnan
aF7.0
aF7.0
aF1.0
aF1.0
aF1.0
aF1.0
aF1.0
aF1.0
aF1.0
aF1.0
aF1.0
aF1.0
aF1.0
aF1.0
aF1.0
aF1.0
aF1.0
aF1.0
aF1.0
aF1.0
aF1.0
aF1.0
aF1.0
aF1.0
aF1.0
aF1.0
aF1.0
aF1.0
aF1.0
aF1.0
aF1.0
aF1.0
aF1.0
aF1.0
aF1.0
aF1.0
aF1.0
aF1.0
aF1.0
asS'2110115581'
p279
(lp280
Fnan
aFnan
aFnan
aFnan
aFnan
aFnan
aFnan
aFnan
aFnan
aFnan
aFnan
aFnan
aFnan
aFnan
aFnan
aFnan
aFnan
aFnan
aFnan
aFnan
aFnan
aFnan
aFnan
aFnan
aFnan
aFnan
aFnan
aFnan
aFnan
aFnan
aFnan
aFnan
aFnan
aFnan
aFnan
aFnan
aFnan
aFnan
aFnan
aFnan
aFnan
aFnan
aFnan
aFnan
aFnan
aFnan
aFnan
aFnan
aFnan
aFnan
aFnan
aFnan
aFnan
aFnan
aFnan
aFnan
aFnan
aFnan
aFnan
aFnan
aFnan
aFnan
aFnan
aFnan
aFnan
aFnan
aFnan
aFnan
aFnan
aFnan
aFnan
aFnan
aFnan
aFnan
aFnan
aFnan
aFnan
aFnan
aFnan
aFnan
aFnan
aFnan
aFnan
aFnan
aFnan
aFnan
aFnan
aFnan
aF7.0
aF1.0
aF1.0
aF1.0
aF1.0
aF1.0
aF1.0
aF1.0
aF1.0
aF1.0
aF1.0
aF1.0
aF1.0
aF1.0
aF1.0
aF1.0
aF1.0
aF1.0
aF1.0
aF1.0
aF1.0
aF1.0
aF1.0
aF1.0
aF1.0
aF1.0
aF1.0
aF1.0
aF1.0
aF1.0
aF1.0
aF1.0
aF1.0
aF1.0
aF1.0
aF1.0
aF1.0
aF1.0
aF1.0
asS'2110140194'
p281
(lp282
Fnan
aFnan
aFnan
aFnan
aFnan
aFnan
aFnan
aFnan
aFnan
aFnan
aFnan
aFnan
aFnan
aFnan
aFnan
aFnan
aFnan
aFnan
aFnan
aFnan
aFnan
aFnan
aFnan
aFnan
aFnan
aFnan
aFnan
aFnan
aFnan
aFnan
aFnan
aFnan
aFnan
aFnan
aFnan
aFnan
aFnan
aFnan
aFnan
aFnan
aFnan
aFnan
aFnan
aFnan
aFnan
aFnan
aFnan
aFnan
aFnan
aFnan
aFnan
aFnan
aFnan
aFnan
aFnan
aFnan
aFnan
aFnan
aFnan
aFnan
aFnan
aFnan
aFnan
aFnan
aFnan
aFnan
aFnan
aFnan
aFnan
aFnan
aFnan
aFnan
aFnan
aFnan
aFnan
aFnan
aFnan
aFnan
aFnan
aFnan
aFnan
aFnan
aFnan
aFnan
aFnan
aFnan
aFnan
aFnan
aF7.0
aF7.0
aF7.0
aF7.0
aF6.0
aF6.0
aF6.0
aF6.0
aF6.0
aF6.0
aF6.0
aF6.0
aF6.0
aF6.0
aF6.0
aF6.0
aF6.0
aF6.0
aF6.0
aF6.0
aF6.0
aF6.0
aF6.0
aF6.0
aF6.0
aF6.0
aF6.0
aF6.0
aF6.0
aF6.0
aF6.0
aF6.0
aF6.0
aF6.0
aF6.0
aF6.0
aF6.0
aF6.0
aF6.0
asS'2110111261'
p283
(lp284
Fnan
aFnan
aFnan
aFnan
aFnan
aFnan
aFnan
aFnan
aFnan
aFnan
aFnan
aFnan
aFnan
aFnan
aFnan
aFnan
aFnan
aFnan
aFnan
aFnan
aFnan
aFnan
aFnan
aFnan
aFnan
aFnan
aFnan
aFnan
aFnan
aFnan
aFnan
aFnan
aFnan
aFnan
aFnan
aFnan
aFnan
aFnan
aFnan
aFnan
aFnan
aFnan
aFnan
aFnan
aFnan
aFnan
aFnan
aFnan
aFnan
aFnan
aFnan
aFnan
aFnan
aFnan
aFnan
aFnan
aFnan
aFnan
aFnan
aFnan
aFnan
aFnan
aFnan
aFnan
aFnan
aFnan
aFnan
aFnan
aFnan
aFnan
aFnan
aFnan
aFnan
aFnan
aFnan
aFnan
aFnan
aFnan
aFnan
aFnan
aFnan
aFnan
aFnan
aFnan
aFnan
aFnan
aFnan
aFnan
aF7.0
aF1.0
aF1.0
aF1.0
aF1.0
aF1.0
aF1.0
aF1.0
aF1.0
aF1.0
aF1.0
aF1.0
aF1.0
aF1.0
aF1.0
aF1.0
aF1.0
aF1.0
aF1.0
aF1.0
aF1.0
aF1.0
aF1.0
aF1.0
aF1.0
aF1.0
aF1.0
aF1.0
aF1.0
aF1.0
aF1.0
aF1.0
aF1.0
aF1.0
aF1.0
aF1.0
aF1.0
aF1.0
aF1.0
asss.