(dp0
cdatetime
date
p1
(S'\x07\xdc\n\x03'
p2
tp3
Rp4
(dp5
S'Etotal'
p6
(dp7
S'2001359937'
p8
F8.49
sS'2001359946'
p9
F8.43
sS'2001360478'
p10
F7.29
sS'2001359949'
p11
F8.56
sS'2001032668'
p12
F8.47
sS'2001360471'
p13
F8.77
sS'2001360110'
p14
F6.88
sS'2001291720'
p15
F8.11
sS'2001360533'
p16
F7.43
sS'2000514998'
p17
F8.74
sS'2001360602'
p18
F7.66
sS'2001360535'
p19
F8.49
ssS'En_meter'
p20
(dp21
g8
(lp22
Fnan
aFnan
aFnan
aF16416.31
aF16416.31
aF16416.31
aF16416.33
aF16416.41
aF16416.43
aF16416.48
aF16416.56
aF16416.67
aF16416.93
aF16417.17
aF16417.31
aF16417.58
aF16417.79
aF16418.11
aF16418.46
aF16418.83
aF16419.23
aF16419.63
aF16419.96
aF16420.03
aF16420.16
aF16420.58
aF16421.05
aF16421.33
aF16421.71
aF16422.08
aF16422.3
aF16422.62
aF16423.09
aF16423.5
aF16424.04
aF16424.37
aF16424.45
aF16424.51
aF16424.64
aF16424.8
asg9
(lp23
Fnan
aFnan
aFnan
aF16315.56
aF16315.56
aF16315.56
aF16315.58
aF16315.66
aF16315.68
aF16315.73
aF16315.8
aF16315.91
aF16316.17
aF16316.4
aF16316.55
aF16316.81
aF16317.03
aF16317.34
aF16317.69
aF16318.06
aF16318.45
aF16318.85
aF16319.19
aF16319.25
aF16319.38
aF16319.81
aF16320.31
aF16320.55
aF16320.92
aF16321.28
aF16321.51
aF16321.86
aF16322.3
aF16322.71
aF16323.24
aF16323.57
aF16323.65
aF16323.71
aF16323.83
aF16323.99
asg10
(lp24
Fnan
aFnan
aFnan
aF16367.92
aF16367.92
aF16367.92
aF16367.93
aF16367.95
aF16367.97
aF16368.01
aF16368.04
aF16368.09
aF16368.23
aF16368.38
aF16368.51
aF16368.75
aF16368.97
aF16369.27
aF16369.62
aF16369.99
aF16370.42
aF16370.87
aF16371.17
aF16371.24
aF16371.38
aF16371.79
aF16372.29
aF16372.54
aF16372.92
aF16373.28
aF16373.45
aF16373.66
aF16373.92
aF16374.17
aF16374.53
aF16374.85
aF16374.91
aF16374.97
aF16375.09
aF16375.21
asg11
(lp25
Fnan
aFnan
aFnan
aF16339.62
aF16339.62
aF16339.62
aF16339.64
aF16339.68
aF16339.7
aF16339.74
aF16339.8
aF16339.9
aF16340.16
aF16340.39
aF16340.54
aF16340.8
aF16341.03
aF16341.34
aF16341.69
aF16342.06
aF16342.48
aF16342.94
aF16343.26
aF16343.31
aF16343.45
aF16343.86
aF16344.36
aF16344.61
aF16345.03
aF16345.37
aF16345.61
aF16345.94
aF16346.44
aF16346.92
aF16347.47
aF16347.77
aF16347.84
aF16347.91
aF16348.01
aF16348.18
asg12
(lp26
F1294.02
aF1294.02
aF1294.02
aF1294.02
aF1294.02
aF1294.02
aF1294.04
aF1294.09
aF1294.11
aF1294.16
aF1294.23
aF1294.33
aF1294.58
aF1294.81
aF1294.95
aF1295.22
aF1295.43
aF1295.74
aF1296.1
aF1296.48
aF1296.9
aF1297.33
aF1297.66
aF1297.73
aF1297.86
aF1298.28
aF1298.75
aF1299.03
aF1299.41
aF1299.78
aF1300.01
aF1300.32
aF1300.8
aF1301.2
aF1301.74
aF1302.07
aF1302.15
aF1302.21
aF1302.33
aF1302.49
asg13
(lp27
Fnan
aFnan
aFnan
aF16397.2
aF16397.2
aF16397.2
aF16397.22
aF16397.3
aF16397.32
aF16397.37
aF16397.45
aF16397.56
aF16397.83
aF16398.07
aF16398.22
aF16398.48
aF16398.72
aF16399.04
aF16399.39
aF16399.77
aF16400.19
aF16400.65
aF16400.96
aF16401.03
aF16401.17
aF16401.59
aF16402.09
aF16402.34
aF16402.75
aF16403.12
aF16403.36
aF16403.7
aF16404.21
aF16404.7
aF16405.22
aF16405.56
aF16405.63
aF16405.69
aF16405.8
aF16405.97
asg14
(lp28
Fnan
aFnan
aFnan
aF16148.89
aF16148.89
aF16148.9
aF16148.9
aF16148.93
aF16148.94
aF16148.97
aF16149.0
aF16149.04
aF16149.09
aF16149.16
aF16149.24
aF16149.43
aF16149.62
aF16149.92
aF16150.25
aF16150.62
aF16151.04
aF16151.49
aF16151.8
aF16151.85
aF16151.99
aF16152.39
aF16152.89
aF16153.13
aF16153.54
aF16153.87
aF16154.03
aF16154.24
aF16154.5
aF16154.76
aF16155.14
aF16155.41
aF16155.48
aF16155.54
aF16155.65
aF16155.77
asg15
(lp29
Fnan
aFnan
aFnan
aF17251.48
aF17251.48
aF17251.48
aF17251.5
aF17251.56
aF17251.57
aF17251.63
aF17251.71
aF17251.82
aF17252.11
aF17252.36
aF17252.5
aF17252.75
aF17252.97
aF17253.29
aF17253.64
aF17254.03
aF17254.47
aF17254.9
aF17255.23
aF17255.3
aF17255.45
aF17255.78
aF17256.15
aF17256.36
aF17256.7
aF17257.02
aF17257.24
aF17257.56
aF17257.97
aF17258.34
aF17258.83
aF17259.14
aF17259.22
aF17259.29
aF17259.42
aF17259.59
asg16
(lp30
Fnan
aFnan
aFnan
aF16373.61
aF16373.61
aF16373.61
aF16373.61
aF16373.68
aF16373.7
aF16373.74
aF16373.8
aF16373.89
aF16374.06
aF16374.22
aF16374.33
aF16374.53
aF16374.68
aF16374.89
aF16375.11
aF16375.38
aF16375.69
aF16376.01
aF16376.27
aF16376.33
aF16376.44
aF16376.8
aF16377.25
aF16377.52
aF16377.9
aF16378.27
aF16378.49
aF16378.82
aF16379.29
aF16379.72
aF16380.27
aF16380.6
aF16380.69
aF16380.75
aF16380.87
aF16381.04
asg17
(lp31
Fnan
aFnan
aFnan
aF16410.07
aF16410.07
aF16410.07
aF16410.09
aF16410.17
aF16410.19
aF16410.24
aF16410.32
aF16410.43
aF16410.7
aF16410.94
aF16411.06
aF16411.35
aF16411.57
aF16411.89
aF16412.26
aF16412.64
aF16413.06
aF16413.49
aF16413.83
aF16413.89
aF16414.02
aF16414.45
aF16414.92
aF16415.21
aF16415.6
aF16415.98
aF16416.19
aF16416.51
aF16417.02
aF16417.5
aF16418.06
aF16418.39
aF16418.47
aF16418.53
aF16418.65
aF16418.81
asg18
(lp32
Fnan
aFnan
aFnan
aF16403.75
aF16403.75
aF16403.76
aF16403.77
aF16403.82
aF16403.84
aF16403.89
aF16403.97
aF16404.08
aF16404.34
aF16404.57
aF16404.71
aF16405.0
aF16405.2
aF16405.5
aF16405.85
aF16406.25
aF16406.64
aF16407.09
aF16407.41
aF16407.46
aF16407.6
aF16408.01
aF16408.52
aF16408.76
aF16409.16
aF16409.5
aF16409.66
aF16409.87
aF16410.13
aF16410.39
aF16410.77
aF16411.05
aF16411.11
aF16411.18
aF16411.28
aF16411.41
asg19
(lp33
Fnan
aFnan
aFnan
aF16474.65
aF16474.65
aF16474.65
aF16474.67
aF16474.75
aF16474.77
aF16474.82
aF16474.9
aF16475.01
aF16475.27
aF16475.5
aF16475.62
aF16475.92
aF16476.13
aF16476.44
aF16476.8
aF16477.17
aF16477.57
aF16477.97
aF16478.31
aF16478.37
aF16478.5
aF16478.93
aF16479.4
aF16479.68
aF16480.05
aF16480.41
aF16480.63
aF16480.96
aF16481.44
aF16481.85
aF16482.39
aF16482.72
aF16482.8
aF16482.86
aF16482.99
aF16483.14
assS'Clock'
p34
(dp35
S'000'
p36
(lp37
S'07:15'
p38
aS'07:20'
p39
aS'07:25'
p40
aS'07:30'
p41
aS'07:35'
p42
aS'07:40'
p43
aS'07:45'
p44
aS'07:50'
p45
aS'07:55'
p46
aS'08:00'
p47
aS'08:05'
p48
aS'08:10'
p49
aS'08:15'
p50
aS'08:20'
p51
aS'08:25'
p52
aS'08:30'
p53
aS'08:35'
p54
aS'08:40'
p55
aS'08:45'
p56
aS'08:50'
p57
aS'08:55'
p58
aS'09:00'
p59
aS'09:05'
p60
aS'09:10'
p61
aS'09:15'
p62
aS'09:20'
p63
aS'09:25'
p64
aS'09:30'
p65
aS'09:35'
p66
aS'09:40'
p67
aS'09:45'
p68
aS'09:50'
p69
aS'09:55'
p70
aS'10:00'
p71
aS'10:05'
p72
aS'10:10'
p73
aS'10:15'
p74
aS'10:20'
p75
aS'10:25'
p76
aS'10:30'
p77
assS'Pac'
p78
(dp79
S'2001359937'
p80
(lp81
Fnan
aFnan
aFnan
aF0.0
aF0.0
aF29.07
aF251.43
aF1003.62
aF261.73
aF650.62
aF836.5
aF1363.0
aF3219.64
aF2830.64
aF1779.86
aF3482.38
aF2551.79
aF3710.67
aF4457.92
aF4610.5
aF4820.79
aF4711.62
aF4158.29
aF642.21
aF1693.23
aF5317.2
aF6162.64
aF2995.14
aF4552.86
aF4461.93
aF2682.64
aF4085.46
aF5593.8
aF5603.46
aF6226.86
aF3709.13
aF911.0
aF743.79
aF1595.29
aF1827.29
asS'2001359946'
p82
(lp83
Fnan
aFnan
aFnan
aF0.0
aF0.0
aF33.53
aF246.93
aF943.21
aF245.93
aF612.77
aF825.43
aF1367.79
aF3215.5
aF2852.0
aF1736.86
aF3527.31
aF2464.21
aF3719.13
aF4419.0
aF4582.5
aF4790.43
aF4698.0
aF4182.93
aF623.57
aF1705.92
aF5357.13
aF6075.6
aF2767.0
aF4452.14
aF4604.93
aF2700.5
aF4122.21
aF5510.07
aF5518.23
aF6282.36
aF3703.53
aF887.0
aF731.14
aF1544.07
aF1868.86
asS'2001360478'
p84
(lp85
Fnan
aFnan
aFnan
aF0.0
aF0.0
aF33.8
aF109.5
aF291.71
aF161.79
aF453.31
aF350.36
aF708.71
aF1668.43
aF1829.71
aF1570.93
aF3121.08
aF2355.93
aF3655.0
aF4428.08
aF4611.21
aF5238.71
aF5097.5
aF3920.54
aF636.87
aF2066.15
aF5341.57
aF6112.4
aF2765.31
aF4717.29
aF4386.5
aF1995.14
aF2351.07
aF3108.14
aF3391.38
aF4286.93
aF3609.4
aF761.92
aF772.64
aF1392.71
aF1402.0
asS'2001359949'
p86
(lp87
Fnan
aFnan
aFnan
aF0.0
aF0.0
aF31.13
aF171.43
aF578.93
aF213.36
aF501.62
aF654.79
aF1233.07
aF3388.46
aF2666.93
aF1779.79
aF3287.92
aF2517.47
aF3868.29
aF4430.54
aF4561.36
aF5133.21
aF4960.93
aF3815.07
aF574.71
aF1920.08
aF5393.0
aF5720.0
aF2840.85
aF4690.0
aF4358.54
aF2982.43
aF3821.29
aF5961.0
aF5797.57
aF6509.64
aF3428.93
aF855.92
aF743.2
aF1317.0
aF1945.64
asS'2001032668'
p88
(lp89
F0.0
aF0.0
aF0.0
aF0.0
aF0.0
aF31.0
aF232.23
aF616.71
aF204.2
aF601.54
aF810.93
aF1408.57
aF3109.64
aF2813.5
aF1727.79
aF3474.23
aF2509.29
aF3967.43
aF4153.5
aF4603.07
aF5240.57
aF4908.62
aF4129.64
aF645.21
aF1660.62
aF5287.93
aF5703.5
aF2806.07
aF4419.71
aF4941.07
aF2811.36
aF4170.92
aF5618.4
aF4777.54
aF6322.57
aF3641.6
aF1000.92
aF814.21
aF1286.71
aF1661.29
asS'2001360471'
p90
(lp91
Fnan
aFnan
aFnan
aF0.0
aF0.0
aF31.47
aF256.71
aF910.57
aF297.43
aF652.38
aF936.0
aF1431.14
aF3314.0
aF2680.36
aF1841.07
aF3361.62
aF2541.6
aF3936.0
aF4451.31
aF4627.14
aF5184.14
aF5062.36
aF4037.85
aF652.87
aF2035.23
aF5450.86
aF5874.93
aF2934.23
aF4714.57
aF4508.79
aF2987.07
aF3850.93
aF6040.07
aF6007.5
aF6602.15
aF3776.27
aF850.0
aF723.93
aF1312.71
aF1916.64
asS'2001360110'
p92
(lp93
Fnan
aFnan
aFnan
aF0.0
aF0.0
aF32.47
aF101.36
aF260.07
aF156.29
aF428.46
aF289.29
aF546.47
aF572.85
aF886.71
aF1015.71
aF2486.38
aF2040.0
aF3530.5
aF4336.38
aF4530.93
aF5147.29
aF4875.64
aF3688.0
aF544.57
aF2057.54
aF5303.14
aF5991.27
aF2821.92
aF4680.13
aF4178.92
aF1980.5
aF2292.5
aF3161.36
aF3382.43
aF4410.57
aF3370.5
aF759.15
aF774.71
aF1378.93
aF1379.5
asS'2001291720'
p94
(lp95
Fnan
aFnan
aFnan
aF0.0
aF12.21
aF43.93
aF250.71
aF648.93
aF224.36
aF666.0
aF910.64
aF1510.93
aF3432.29
aF3031.21
aF1760.07
aF3289.85
aF2461.79
aF3804.4
aF4458.46
aF4789.29
aF5371.86
aF4952.54
aF4151.21
aF700.71
aF1864.86
aF4308.21
aF4154.4
aF2438.08
aF3984.36
aF4229.5
aF2630.93
aF3835.29
aF5078.86
aF4703.46
aF5725.5
aF3389.67
aF1048.77
aF843.07
aF1403.43
aF1808.71
asS'2001360533'
p96
(lp97
Fnan
aFnan
aFnan
aF0.0
aF0.0
aF0.0
aF0.0
aF837.29
aF237.27
aF516.75
aF757.29
aF1098.8
aF2083.54
aF1986.93
aF1374.86
aF2285.71
aF1880.07
aF2502.07
aF2668.79
aF3301.57
aF3813.71
aF3676.69
aF3240.57
aF658.86
aF1368.38
aF4500.93
aF5429.14
aF2858.5
aF4430.14
aF4954.5
aF2561.23
aF4263.5
aF5747.71
aF5302.29
aF6487.93
aF3861.64
aF1008.29
aF806.79
aF1314.5
aF1855.92
asS'2000514998'
p98
(lp99
Fnan
aFnan
aFnan
aF0.0
aF0.0
aF30.73
aF265.85
aF952.0
aF297.2
aF608.5
aF962.07
aF1424.86
aF3260.0
aF2703.64
aF1644.38
aF3396.64
aF2431.14
aF4097.07
aF4280.29
aF4632.57
aF5187.43
aF4985.46
aF4111.07
aF666.86
aF1657.08
aF5380.73
aF5679.36
aF3112.0
aF4550.64
aF4533.71
aF2688.69
aF3875.79
aF5967.5
aF5957.21
aF6501.14
aF3759.73
aF858.54
aF737.79
aF1324.5
aF2061.38
asS'2001360602'
p100
(lp101
Fnan
aFnan
aFnan
aF0.0
aF0.0
aF36.07
aF191.71
aF615.5
aF280.86
aF627.38
aF862.0
aF1392.8
aF3458.23
aF2604.5
aF1792.36
aF3480.43
aF2210.93
aF3657.43
aF4406.46
aF4629.33
aF5224.23
aF5146.71
aF3715.57
aF578.21
aF2095.77
aF5336.0
aF6054.67
aF2860.54
aF4903.8
aF3953.43
aF2004.23
aF2241.64
aF3104.0
aF3328.0
aF4492.0
aF3326.79
aF725.31
aF780.4
aF1387.23
aF1364.36
asS'2001360535'
p102
(lp103
Fnan
aFnan
aFnan
aF0.0
aF0.0
aF33.33
aF269.31
aF897.07
aF274.93
aF672.38
aF844.29
aF1335.86
aF3218.79
aF2831.79
aF1609.38
aF3529.14
aF2517.36
aF3861.86
aF4241.57
aF4615.57
aF4821.07
aF4719.46
aF4157.0
aF641.5
aF1677.08
aF5325.53
aF6175.71
aF3050.57
aF4455.07
aF4356.07
aF2543.46
aF4118.14
aF5652.27
aF5633.31
aF6160.0
aF3721.73
aF925.69
aF744.64
aF1602.43
aF1913.31
assS'Mode'
p104
(dp105
S'2001359937'
p106
(lp107
Fnan
aFnan
aFnan
aF3.0
aF3.0
aF7.0
aF7.0
aF7.0
aF7.0
aF7.0
aF7.0
aF7.0
aF7.0
aF7.0
aF7.0
aF7.0
aF7.0
aF7.0
aF7.0
aF7.0
aF7.0
aF7.0
aF7.0
aF7.0
aF7.0
aF7.0
aF7.0
aF7.0
aF7.0
aF7.0
aF7.0
aF7.0
aF7.0
aF7.0
aF7.0
aF7.0
aF7.0
aF7.0
aF7.0
aF7.0
asS'2001359946'
p108
(lp109
Fnan
aFnan
aFnan
aF3.0
aF3.0
aF7.0
aF7.0
aF7.0
aF7.0
aF7.0
aF7.0
aF7.0
aF7.0
aF7.0
aF7.0
aF7.0
aF7.0
aF7.0
aF7.0
aF7.0
aF7.0
aF7.0
aF7.0
aF7.0
aF7.0
aF7.0
aF7.0
aF7.0
aF7.0
aF7.0
aF7.0
aF7.0
aF7.0
aF7.0
aF7.0
aF7.0
aF7.0
aF7.0
aF7.0
aF7.0
asS'2001360478'
p110
(lp111
Fnan
aFnan
aFnan
aF3.0
aF3.0
aF7.0
aF7.0
aF7.0
aF7.0
aF7.0
aF7.0
aF7.0
aF7.0
aF7.0
aF7.0
aF7.0
aF7.0
aF7.0
aF7.0
aF7.0
aF7.0
aF7.0
aF7.0
aF7.0
aF7.0
aF7.0
aF7.0
aF7.0
aF7.0
aF7.0
aF7.0
aF7.0
aF7.0
aF7.0
aF7.0
aF7.0
aF7.0
aF7.0
aF7.0
aF7.0
asS'2001359949'
p112
(lp113
Fnan
aFnan
aFnan
aF3.0
aF3.0
aF7.0
aF7.0
aF7.0
aF7.0
aF7.0
aF7.0
aF7.0
aF7.0
aF7.0
aF7.0
aF7.0
aF7.0
aF7.0
aF7.0
aF7.0
aF7.0
aF7.0
aF7.0
aF7.0
aF7.0
aF7.0
aF7.0
aF7.0
aF7.0
aF7.0
aF7.0
aF7.0
aF7.0
aF7.0
aF7.0
aF7.0
aF7.0
aF7.0
aF7.0
aF7.0
asS'2001032668'
p114
(lp115
F3.0
aF3.0
aF3.0
aF3.0
aF3.0
aF7.0
aF7.0
aF7.0
aF7.0
aF7.0
aF7.0
aF7.0
aF7.0
aF7.0
aF7.0
aF7.0
aF7.0
aF7.0
aF7.0
aF7.0
aF7.0
aF7.0
aF7.0
aF7.0
aF7.0
aF7.0
aF7.0
aF7.0
aF7.0
aF7.0
aF7.0
aF7.0
aF7.0
aF7.0
aF7.0
aF7.0
aF7.0
aF7.0
aF7.0
aF7.0
asS'2001360471'
p116
(lp117
Fnan
aFnan
aFnan
aF3.0
aF3.0
aF7.0
aF7.0
aF7.0
aF7.0
aF7.0
aF7.0
aF7.0
aF7.0
aF7.0
aF7.0
aF7.0
aF7.0
aF7.0
aF7.0
aF7.0
aF7.0
aF7.0
aF7.0
aF7.0
aF7.0
aF7.0
aF7.0
aF7.0
aF7.0
aF7.0
aF7.0
aF7.0
aF7.0
aF7.0
aF7.0
aF7.0
aF7.0
aF7.0
aF7.0
aF7.0
asS'2001360110'
p118
(lp119
Fnan
aFnan
aFnan
aF3.0
aF3.0
aF7.0
aF7.0
aF7.0
aF7.0
aF7.0
aF7.0
aF7.0
aF7.0
aF7.0
aF7.0
aF7.0
aF7.0
aF7.0
aF7.0
aF7.0
aF7.0
aF7.0
aF7.0
aF7.0
aF7.0
aF7.0
aF7.0
aF7.0
aF7.0
aF7.0
aF7.0
aF7.0
aF7.0
aF7.0
aF7.0
aF7.0
aF7.0
aF7.0
aF7.0
aF7.0
asS'2001291720'
p120
(lp121
Fnan
aFnan
aFnan
aF3.0
aF7.0
aF7.0
aF7.0
aF7.0
aF7.0
aF7.0
aF7.0
aF7.0
aF7.0
aF7.0
aF7.0
aF7.0
aF7.0
aF7.0
aF7.0
aF7.0
aF7.0
aF7.0
aF7.0
aF7.0
aF7.0
aF7.0
aF7.0
aF7.0
aF7.0
aF7.0
aF7.0
aF7.0
aF7.0
aF7.0
aF7.0
aF7.0
aF7.0
aF7.0
aF7.0
aF7.0
asS'2001360533'
p122
(lp123
Fnan
aFnan
aFnan
aF8.0
aF8.0
aF8.0
aF3.0
aF7.0
aF7.0
aF7.0
aF7.0
aF7.0
aF7.0
aF7.0
aF7.0
aF7.0
aF7.0
aF7.0
aF7.0
aF7.0
aF7.0
aF7.0
aF7.0
aF7.0
aF7.0
aF7.0
aF7.0
aF7.0
aF7.0
aF7.0
aF7.0
aF7.0
aF7.0
aF7.0
aF7.0
aF7.0
aF7.0
aF7.0
aF7.0
aF7.0
asS'2000514998'
p124
(lp125
Fnan
aFnan
aFnan
aF2.0
aF3.0
aF7.0
aF7.0
aF7.0
aF7.0
aF7.0
aF7.0
aF7.0
aF7.0
aF7.0
aF7.0
aF7.0
aF7.0
aF7.0
aF7.0
aF7.0
aF7.0
aF7.0
aF7.0
aF7.0
aF7.0
aF7.0
aF7.0
aF7.0
aF7.0
aF7.0
aF7.0
aF7.0
aF7.0
aF7.0
aF7.0
aF7.0
aF7.0
aF7.0
aF7.0
aF7.0
asS'2001360602'
p126
(lp127
Fnan
aFnan
aFnan
aF3.0
aF3.0
aF7.0
aF7.0
aF7.0
aF7.0
aF7.0
aF7.0
aF7.0
aF7.0
aF7.0
aF7.0
aF7.0
aF7.0
aF7.0
aF7.0
aF7.0
aF7.0
aF7.0
aF7.0
aF7.0
aF7.0
aF7.0
aF7.0
aF7.0
aF7.0
aF7.0
aF7.0
aF7.0
aF7.0
aF7.0
aF7.0
aF7.0
aF7.0
aF7.0
aF7.0
aF7.0
asS'2001360535'
p128
(lp129
Fnan
aFnan
aFnan
aF3.0
aF3.0
aF7.0
aF7.0
aF7.0
aF7.0
aF7.0
aF7.0
aF7.0
aF7.0
aF7.0
aF7.0
aF7.0
aF7.0
aF7.0
aF7.0
aF7.0
aF7.0
aF7.0
aF7.0
aF7.0
aF7.0
aF7.0
aF7.0
aF7.0
aF7.0
aF7.0
aF7.0
aF7.0
aF7.0
aF7.0
aF7.0
aF7.0
aF7.0
aF7.0
aF7.0
aF7.0
assS'PRdaily'
p130
S'-'
p131
sS'Error'
p132
(dp133
S'2001359937'
p134
(lp135
Fnan
aFnan
aFnan
aF0.0
aF0.0
aF0.0
aF0.0
aF0.0
aF0.0
aF0.0
aF0.0
aF0.0
aF0.0
aF0.0
aF0.0
aF0.0
aF0.0
aF0.0
aF0.0
aF0.0
aF0.0
aF0.0
aF0.0
aF0.0
aF0.0
aF0.0
aF0.0
aF0.0
aF0.0
aF0.0
aF0.0
aF0.0
aF0.0
aF0.0
aF0.0
aF0.0
aF0.0
aF0.0
aF0.0
aF0.0
asS'2001359946'
p136
(lp137
Fnan
aFnan
aFnan
aF0.0
aF0.0
aF0.0
aF0.0
aF0.0
aF0.0
aF0.0
aF0.0
aF0.0
aF0.0
aF0.0
aF0.0
aF0.0
aF0.0
aF0.0
aF0.0
aF0.0
aF0.0
aF0.0
aF0.0
aF0.0
aF0.0
aF0.0
aF0.0
aF0.0
aF0.0
aF0.0
aF0.0
aF0.0
aF0.0
aF0.0
aF0.0
aF0.0
aF0.0
aF0.0
aF0.0
aF0.0
asS'2001360478'
p138
(lp139
Fnan
aFnan
aFnan
aF0.0
aF0.0
aF0.0
aF0.0
aF0.0
aF0.0
aF0.0
aF0.0
aF0.0
aF0.0
aF0.0
aF0.0
aF0.0
aF0.0
aF0.0
aF0.0
aF0.0
aF0.0
aF0.0
aF0.0
aF0.0
aF0.0
aF0.0
aF0.0
aF0.0
aF0.0
aF0.0
aF0.0
aF0.0
aF0.0
aF0.0
aF0.0
aF0.0
aF0.0
aF0.0
aF0.0
aF0.0
asS'2001359949'
p140
(lp141
Fnan
aFnan
aFnan
aF0.0
aF0.0
aF0.0
aF0.0
aF0.0
aF0.0
aF0.0
aF0.0
aF0.0
aF0.0
aF0.0
aF0.0
aF0.0
aF0.0
aF0.0
aF0.0
aF0.0
aF0.0
aF0.0
aF0.0
aF0.0
aF0.0
aF0.0
aF0.0
aF0.0
aF0.0
aF0.0
aF0.0
aF0.0
aF0.0
aF0.0
aF0.0
aF0.0
aF0.0
aF0.0
aF0.0
aF0.0
asS'2001032668'
p142
(lp143
F0.0
aF0.0
aF0.0
aF0.0
aF0.0
aF0.0
aF0.0
aF0.0
aF0.0
aF0.0
aF0.0
aF0.0
aF0.0
aF0.0
aF0.0
aF0.0
aF0.0
aF0.0
aF0.0
aF0.0
aF0.0
aF0.0
aF0.0
aF0.0
aF0.0
aF0.0
aF0.0
aF0.0
aF0.0
aF0.0
aF0.0
aF0.0
aF0.0
aF0.0
aF0.0
aF0.0
aF0.0
aF0.0
aF0.0
aF0.0
asS'2001360471'
p144
(lp145
Fnan
aFnan
aFnan
aF0.0
aF0.0
aF0.0
aF0.0
aF0.0
aF0.0
aF0.0
aF0.0
aF0.0
aF0.0
aF0.0
aF0.0
aF0.0
aF0.0
aF0.0
aF0.0
aF0.0
aF0.0
aF0.0
aF0.0
aF0.0
aF0.0
aF0.0
aF0.0
aF0.0
aF0.0
aF0.0
aF0.0
aF0.0
aF0.0
aF0.0
aF0.0
aF0.0
aF0.0
aF0.0
aF0.0
aF0.0
asS'2001360110'
p146
(lp147
Fnan
aFnan
aFnan
aF0.0
aF0.0
aF0.0
aF0.0
aF0.0
aF0.0
aF0.0
aF0.0
aF0.0
aF0.0
aF0.0
aF0.0
aF0.0
aF0.0
aF0.0
aF0.0
aF0.0
aF0.0
aF0.0
aF0.0
aF0.0
aF0.0
aF0.0
aF0.0
aF0.0
aF0.0
aF0.0
aF0.0
aF0.0
aF0.0
aF0.0
aF0.0
aF0.0
aF0.0
aF0.0
aF0.0
aF0.0
asS'2001291720'
p148
(lp149
Fnan
aFnan
aFnan
aF0.0
aF0.0
aF0.0
aF0.0
aF0.0
aF0.0
aF0.0
aF0.0
aF0.0
aF0.0
aF0.0
aF0.0
aF0.0
aF0.0
aF0.0
aF0.0
aF0.0
aF0.0
aF0.0
aF0.0
aF0.0
aF0.0
aF0.0
aF0.0
aF0.0
aF0.0
aF0.0
aF0.0
aF0.0
aF0.0
aF0.0
aF0.0
aF0.0
aF0.0
aF0.0
aF0.0
aF0.0
asS'2001360533'
p150
(lp151
Fnan
aFnan
aFnan
aF27.0
aF27.0
aF27.0
aF0.0
aF0.0
aF0.0
aF0.0
aF0.0
aF0.0
aF0.0
aF0.0
aF0.0
aF0.0
aF0.0
aF0.0
aF0.0
aF0.0
aF0.0
aF0.0
aF0.0
aF0.0
aF0.0
aF0.0
aF0.0
aF0.0
aF0.0
aF0.0
aF0.0
aF0.0
aF0.0
aF0.0
aF0.0
aF0.0
aF0.0
aF0.0
aF0.0
aF0.0
asS'2000514998'
p152
(lp153
Fnan
aFnan
aFnan
aF0.0
aF0.0
aF0.0
aF0.0
aF0.0
aF0.0
aF0.0
aF0.0
aF0.0
aF0.0
aF0.0
aF0.0
aF0.0
aF0.0
aF0.0
aF0.0
aF0.0
aF0.0
aF0.0
aF0.0
aF0.0
aF0.0
aF0.0
aF0.0
aF0.0
aF0.0
aF0.0
aF0.0
aF0.0
aF0.0
aF0.0
aF0.0
aF0.0
aF0.0
aF0.0
aF0.0
aF0.0
asS'2001360602'
p154
(lp155
Fnan
aFnan
aFnan
aF0.0
aF0.0
aF0.0
aF0.0
aF0.0
aF0.0
aF0.0
aF0.0
aF0.0
aF0.0
aF0.0
aF0.0
aF0.0
aF0.0
aF0.0
aF0.0
aF0.0
aF0.0
aF0.0
aF0.0
aF0.0
aF0.0
aF0.0
aF0.0
aF0.0
aF0.0
aF0.0
aF0.0
aF0.0
aF0.0
aF0.0
aF0.0
aF0.0
aF0.0
aF0.0
aF0.0
aF0.0
asS'2001360535'
p156
(lp157
Fnan
aFnan
aFnan
aF0.0
aF0.0
aF0.0
aF0.0
aF0.0
aF0.0
aF0.0
aF0.0
aF0.0
aF0.0
aF0.0
aF0.0
aF0.0
aF0.0
aF0.0
aF0.0
aF0.0
aF0.0
aF0.0
aF0.0
aF0.0
aF0.0
aF0.0
aF0.0
aF0.0
aF0.0
aF0.0
aF0.0
aF0.0
aF0.0
aF0.0
aF0.0
aF0.0
aF0.0
aF0.0
aF0.0
aF0.0
assS'Edaily'
p158
F97.3
sS'SN'
p159
(dp160
S'2001359937'
p161
(lp162
Fnan
aFnan
aFnan
aF2001359937.0
aF2001359937.0
aF2001359937.0
aF2001359937.0
aF2001359937.0
aF2001359937.0
aF2001359937.0
aF2001359937.0
aF2001359937.0
aF2001359937.0
aF2001359937.0
aF2001359937.0
aF2001359937.0
aF2001359937.0
aF2001359937.0
aF2001359937.0
aF2001359937.0
aF2001359937.0
aF2001359937.0
aF2001359937.0
aF2001359937.0
aF2001359937.0
aF2001359937.0
aF2001359937.0
aF2001359937.0
aF2001359937.0
aF2001359937.0
aF2001359937.0
aF2001359937.0
aF2001359937.0
aF2001359937.0
aF2001359937.0
aF2001359937.0
aF2001359937.0
aF2001359937.0
aF2001359937.0
aF2001359937.0
asS'2001359946'
p163
(lp164
Fnan
aFnan
aFnan
aF2001359946.0
aF2001359946.0
aF2001359946.0
aF2001359946.0
aF2001359946.0
aF2001359946.0
aF2001359946.0
aF2001359946.0
aF2001359946.0
aF2001359946.0
aF2001359946.0
aF2001359946.0
aF2001359946.0
aF2001359946.0
aF2001359946.0
aF2001359946.0
aF2001359946.0
aF2001359946.0
aF2001359946.0
aF2001359946.0
aF2001359946.0
aF2001359946.0
aF2001359946.0
aF2001359946.0
aF2001359946.0
aF2001359946.0
aF2001359946.0
aF2001359946.0
aF2001359946.0
aF2001359946.0
aF2001359946.0
aF2001359946.0
aF2001359946.0
aF2001359946.0
aF2001359946.0
aF2001359946.0
aF2001359946.0
asS'2001360478'
p165
(lp166
Fnan
aFnan
aFnan
aF2001360478.0
aF2001360478.0
aF2001360478.0
aF2001360478.0
aF2001360478.0
aF2001360478.0
aF2001360478.0
aF2001360478.0
aF2001360478.0
aF2001360478.0
aF2001360478.0
aF2001360478.0
aF2001360478.0
aF2001360478.0
aF2001360478.0
aF2001360478.0
aF2001360478.0
aF2001360478.0
aF2001360478.0
aF2001360478.0
aF2001360478.0
aF2001360478.0
aF2001360478.0
aF2001360478.0
aF2001360478.0
aF2001360478.0
aF2001360478.0
aF2001360478.0
aF2001360478.0
aF2001360478.0
aF2001360478.0
aF2001360478.0
aF2001360478.0
aF2001360478.0
aF2001360478.0
aF2001360478.0
aF2001360478.0
asS'2001359949'
p167
(lp168
Fnan
aFnan
aFnan
aF2001359949.0
aF2001359949.0
aF2001359949.0
aF2001359949.0
aF2001359949.0
aF2001359949.0
aF2001359949.0
aF2001359949.0
aF2001359949.0
aF2001359949.0
aF2001359949.0
aF2001359949.0
aF2001359949.0
aF2001359949.0
aF2001359949.0
aF2001359949.0
aF2001359949.0
aF2001359949.0
aF2001359949.0
aF2001359949.0
aF2001359949.0
aF2001359949.0
aF2001359949.0
aF2001359949.0
aF2001359949.0
aF2001359949.0
aF2001359949.0
aF2001359949.0
aF2001359949.0
aF2001359949.0
aF2001359949.0
aF2001359949.0
aF2001359949.0
aF2001359949.0
aF2001359949.0
aF2001359949.0
aF2001359949.0
asS'2001032668'
p169
(lp170
F2001032668.0
aF2001032668.0
aF2001032668.0
aF2001032668.0
aF2001032668.0
aF2001032668.0
aF2001032668.0
aF2001032668.0
aF2001032668.0
aF2001032668.0
aF2001032668.0
aF2001032668.0
aF2001032668.0
aF2001032668.0
aF2001032668.0
aF2001032668.0
aF2001032668.0
aF2001032668.0
aF2001032668.0
aF2001032668.0
aF2001032668.0
aF2001032668.0
aF2001032668.0
aF2001032668.0
aF2001032668.0
aF2001032668.0
aF2001032668.0
aF2001032668.0
aF2001032668.0
aF2001032668.0
aF2001032668.0
aF2001032668.0
aF2001032668.0
aF2001032668.0
aF2001032668.0
aF2001032668.0
aF2001032668.0
aF2001032668.0
aF2001032668.0
aF2001032668.0
asS'2001360471'
p171
(lp172
Fnan
aFnan
aFnan
aF2001360471.0
aF2001360471.0
aF2001360471.0
aF2001360471.0
aF2001360471.0
aF2001360471.0
aF2001360471.0
aF2001360471.0
aF2001360471.0
aF2001360471.0
aF2001360471.0
aF2001360471.0
aF2001360471.0
aF2001360471.0
aF2001360471.0
aF2001360471.0
aF2001360471.0
aF2001360471.0
aF2001360471.0
aF2001360471.0
aF2001360471.0
aF2001360471.0
aF2001360471.0
aF2001360471.0
aF2001360471.0
aF2001360471.0
aF2001360471.0
aF2001360471.0
aF2001360471.0
aF2001360471.0
aF2001360471.0
aF2001360471.0
aF2001360471.0
aF2001360471.0
aF2001360471.0
aF2001360471.0
aF2001360471.0
asS'2001360110'
p173
(lp174
Fnan
aFnan
aFnan
aF2001360110.0
aF2001360110.0
aF2001360110.0
aF2001360110.0
aF2001360110.0
aF2001360110.0
aF2001360110.0
aF2001360110.0
aF2001360110.0
aF2001360110.0
aF2001360110.0
aF2001360110.0
aF2001360110.0
aF2001360110.0
aF2001360110.0
aF2001360110.0
aF2001360110.0
aF2001360110.0
aF2001360110.0
aF2001360110.0
aF2001360110.0
aF2001360110.0
aF2001360110.0
aF2001360110.0
aF2001360110.0
aF2001360110.0
aF2001360110.0
aF2001360110.0
aF2001360110.0
aF2001360110.0
aF2001360110.0
aF2001360110.0
aF2001360110.0
aF2001360110.0
aF2001360110.0
aF2001360110.0
aF2001360110.0
asS'2001291720'
p175
(lp176
Fnan
aFnan
aFnan
aF2001291720.0
aF2001291720.0
aF2001291720.0
aF2001291720.0
aF2001291720.0
aF2001291720.0
aF2001291720.0
aF2001291720.0
aF2001291720.0
aF2001291720.0
aF2001291720.0
aF2001291720.0
aF2001291720.0
aF2001291720.0
aF2001291720.0
aF2001291720.0
aF2001291720.0
aF2001291720.0
aF2001291720.0
aF2001291720.0
aF2001291720.0
aF2001291720.0
aF2001291720.0
aF2001291720.0
aF2001291720.0
aF2001291720.0
aF2001291720.0
aF2001291720.0
aF2001291720.0
aF2001291720.0
aF2001291720.0
aF2001291720.0
aF2001291720.0
aF2001291720.0
aF2001291720.0
aF2001291720.0
aF2001291720.0
asS'2001360533'
p177
(lp178
Fnan
aFnan
aFnan
aF2001360533.0
aF2001360533.0
aF2001360533.0
aF2001360533.0
aF2001360533.0
aF2001360533.0
aF2001360533.0
aF2001360533.0
aF2001360533.0
aF2001360533.0
aF2001360533.0
aF2001360533.0
aF2001360533.0
aF2001360533.0
aF2001360533.0
aF2001360533.0
aF2001360533.0
aF2001360533.0
aF2001360533.0
aF2001360533.0
aF2001360533.0
aF2001360533.0
aF2001360533.0
aF2001360533.0
aF2001360533.0
aF2001360533.0
aF2001360533.0
aF2001360533.0
aF2001360533.0
aF2001360533.0
aF2001360533.0
aF2001360533.0
aF2001360533.0
aF2001360533.0
aF2001360533.0
aF2001360533.0
aF2001360533.0
asS'2000514998'
p179
(lp180
Fnan
aFnan
aFnan
aF2000514998.0
aF2000514998.0
aF2000514998.0
aF2000514998.0
aF2000514998.0
aF2000514998.0
aF2000514998.0
aF2000514998.0
aF2000514998.0
aF2000514998.0
aF2000514998.0
aF2000514998.0
aF2000514998.0
aF2000514998.0
aF2000514998.0
aF2000514998.0
aF2000514998.0
aF2000514998.0
aF2000514998.0
aF2000514998.0
aF2000514998.0
aF2000514998.0
aF2000514998.0
aF2000514998.0
aF2000514998.0
aF2000514998.0
aF2000514998.0
aF2000514998.0
aF2000514998.0
aF2000514998.0
aF2000514998.0
aF2000514998.0
aF2000514998.0
aF2000514998.0
aF2000514998.0
aF2000514998.0
aF2000514998.0
asS'2001360602'
p181
(lp182
Fnan
aFnan
aFnan
aF2001360602.0
aF2001360602.0
aF2001360602.0
aF2001360602.0
aF2001360602.0
aF2001360602.0
aF2001360602.0
aF2001360602.0
aF2001360602.0
aF2001360602.0
aF2001360602.0
aF2001360602.0
aF2001360602.0
aF2001360602.0
aF2001360602.0
aF2001360602.0
aF2001360602.0
aF2001360602.0
aF2001360602.0
aF2001360602.0
aF2001360602.0
aF2001360602.0
aF2001360602.0
aF2001360602.0
aF2001360602.0
aF2001360602.0
aF2001360602.0
aF2001360602.0
aF2001360602.0
aF2001360602.0
aF2001360602.0
aF2001360602.0
aF2001360602.0
aF2001360602.0
aF2001360602.0
aF2001360602.0
aF2001360602.0
asS'2001360535'
p183
(lp184
Fnan
aFnan
aFnan
aF2001360535.0
aF2001360535.0
aF2001360535.0
aF2001360535.0
aF2001360535.0
aF2001360535.0
aF2001360535.0
aF2001360535.0
aF2001360535.0
aF2001360535.0
aF2001360535.0
aF2001360535.0
aF2001360535.0
aF2001360535.0
aF2001360535.0
aF2001360535.0
aF2001360535.0
aF2001360535.0
aF2001360535.0
aF2001360535.0
aF2001360535.0
aF2001360535.0
aF2001360535.0
aF2001360535.0
aF2001360535.0
aF2001360535.0
aF2001360535.0
aF2001360535.0
aF2001360535.0
aF2001360535.0
aF2001360535.0
aF2001360535.0
aF2001360535.0
aF2001360535.0
aF2001360535.0
aF2001360535.0
aF2001360535.0
asss.