(dp0
cdatetime
date
p1
(S'\x07\xdc\n\x03'
p2
tp3
Rp4
(dp5
S'Irradiance'
p6
(dp7
S'11105'
p8
(lp9
F0.0
aF0.0
aF0.0
aF0.0
aF0.0
aF0.0
aF0.0
aF0.0
aF0.0
aF0.0
aF0.0
aF0.0
aF0.0
aF0.0
aF0.0
aF0.0
aF0.0
aF0.0
aF0.0
aF0.0
aF0.0
aF0.0
aF0.0
aF0.0
aF0.0
aF0.0
aF0.0
aF0.0
aF0.0
aF0.0
aF0.0
aF0.0
aF0.0
aF0.0
aF0.0
aF0.0
aF0.0
aF0.0
aF0.0
aF0.0
aF0.0
aF0.0
aF0.0
aF0.0
aF0.0
aF0.0
aF0.0
aF0.0
aF0.0
aF0.0
aF0.0
aF0.0
aF0.0
aF0.0
aF0.0
aF0.0
aF0.0
aF0.0
aF0.0
aF0.0
aF0.0
aF0.0
aF0.0
aF0.0
aF0.0
aF0.0
aF0.0
aF0.0
aF0.0
aF0.0
aF0.0
aF0.0
aF0.0
aF0.0
aF0.0
aF0.0
aF0.0
aF0.0
aF0.0
aF0.0
aF0.0
aF0.0
aF0.0
aF0.0
aF0.0
aF0.0
aF0.0
aF0.5
aF2.0
aF4.27
aF6.85
aF10.31
aF11.92
aF9.73
aF9.17
aF14.08
aF11.15
aF12.33
aF11.69
aF31.27
aF57.0
aF78.54
aF71.0
aF92.92
aF64.92
aF49.92
aF102.0
aF580.33
aF559.38
aF148.64
aF153.92
aF492.36
aF768.25
aF766.58
aF581.15
aF429.92
aF420.46
aF340.23
aF375.83
aF298.0
aF650.0
aF842.0
aF500.33
aF96.33
aF690.7
aF977.6
aF976.4
assS'Etotal'
p10
(dp11
S'2001232057'
p12
F6.29
sS'2001257130'
p13
F6.71
sS'2001360643'
p14
F6.36
sS'2001360612'
p15
F6.43
sS'2001360610'
p16
F6.42
sS'2001232083'
p17
F6.22
sS'2001232087'
p18
F6.3
sS'2001360579'
p19
F6.34
sS'2001360581'
p20
F6.02
sS'2001360580'
p21
F6.32
sS'2001360638'
p22
F6.02
sS'2001360584'
p23
F6.26
ssS'Tambient'
p24
(dp25
S'11105'
p26
(lp27
F-273.17
aF-273.17
aF-273.17
aF-273.17
aF-273.17
aF-273.17
aF-273.17
aF-273.17
aF-273.17
aF-273.17
aF-273.17
aF-273.17
aF-273.17
aF-273.17
aF-273.17
aF-273.17
aF-273.17
aF-273.17
aF-273.17
aF-273.17
aF-273.17
aF-273.17
aF-273.17
aF-273.17
aF-273.17
aF-273.17
aF-273.17
aF-273.17
aF-273.17
aF-273.17
aF-273.17
aF-273.17
aF-273.17
aF-273.17
aF-273.17
aF-273.17
aF-273.17
aF-273.17
aF-273.17
aF-273.17
aF-273.17
aF-273.17
aF-273.17
aF-273.17
aF-273.17
aF-273.17
aF-273.17
aF-273.17
aF-273.17
aF-273.17
aF-273.17
aF-273.17
aF-273.17
aF-273.17
aF-273.17
aF-273.17
aF-273.17
aF-273.17
aF-273.17
aF-273.17
aF-273.17
aF-273.17
aF-273.17
aF-273.17
aF-273.17
aF-273.17
aF-273.17
aF-273.17
aF-273.17
aF-273.17
aF-273.17
aF-273.17
aF-273.17
aF-273.17
aF-273.17
aF-273.17
aF-273.17
aF-273.17
aF-273.17
aF-273.17
aF-273.17
aF-273.17
aF-273.17
aF-273.17
aF-273.17
aF-273.17
aF-273.17
aF-273.17
aF-273.17
aF-273.17
aF-273.17
aF-273.17
aF-273.17
aF-273.17
aF-273.17
aF-273.17
aF-273.17
aF-273.17
aF-273.17
aF-273.17
aF-273.17
aF-273.17
aF-273.17
aF-273.17
aF-273.17
aF-273.17
aF-273.17
aF-273.17
aF-273.17
aF-273.17
aF-273.17
aF-273.17
aF-273.17
aF-273.17
aF-273.17
aF-273.17
aF-273.17
aF-273.17
aF-273.17
aF-273.17
aF-273.17
aF-273.17
aF-273.17
aF-273.17
aF-273.17
aF-273.17
aF-273.17
assS'Clock'
p28
(dp29
S'000'
p30
(lp31
S'00:00'
p32
aS'00:05'
p33
aS'00:10'
p34
aS'00:15'
p35
aS'00:20'
p36
aS'00:25'
p37
aS'00:30'
p38
aS'00:35'
p39
aS'00:40'
p40
aS'00:45'
p41
aS'00:50'
p42
aS'00:55'
p43
aS'01:00'
p44
aS'01:05'
p45
aS'01:10'
p46
aS'01:15'
p47
aS'01:20'
p48
aS'01:25'
p49
aS'01:30'
p50
aS'01:35'
p51
aS'01:40'
p52
aS'01:45'
p53
aS'01:50'
p54
aS'01:55'
p55
aS'02:00'
p56
aS'02:05'
p57
aS'02:10'
p58
aS'02:15'
p59
aS'02:20'
p60
aS'02:25'
p61
aS'02:30'
p62
aS'02:35'
p63
aS'02:40'
p64
aS'02:45'
p65
aS'02:50'
p66
aS'02:55'
p67
aS'03:00'
p68
aS'03:05'
p69
aS'03:10'
p70
aS'03:15'
p71
aS'03:20'
p72
aS'03:25'
p73
aS'03:30'
p74
aS'03:35'
p75
aS'03:40'
p76
aS'03:45'
p77
aS'03:50'
p78
aS'03:55'
p79
aS'04:00'
p80
aS'04:05'
p81
aS'04:10'
p82
aS'04:15'
p83
aS'04:20'
p84
aS'04:25'
p85
aS'04:30'
p86
aS'04:35'
p87
aS'04:40'
p88
aS'04:45'
p89
aS'04:50'
p90
aS'04:55'
p91
aS'05:00'
p92
aS'05:05'
p93
aS'05:10'
p94
aS'05:15'
p95
aS'05:20'
p96
aS'05:25'
p97
aS'05:30'
p98
aS'05:35'
p99
aS'05:40'
p100
aS'05:45'
p101
aS'05:50'
p102
aS'05:55'
p103
aS'06:00'
p104
aS'06:05'
p105
aS'06:10'
p106
aS'06:15'
p107
aS'06:20'
p108
aS'06:25'
p109
aS'06:30'
p110
aS'06:35'
p111
aS'06:40'
p112
aS'06:45'
p113
aS'06:50'
p114
aS'06:55'
p115
aS'07:00'
p116
aS'07:05'
p117
aS'07:10'
p118
aS'07:15'
p119
aS'07:20'
p120
aS'07:25'
p121
aS'07:30'
p122
aS'07:35'
p123
aS'07:40'
p124
aS'07:45'
p125
aS'07:50'
p126
aS'07:55'
p127
aS'08:00'
p128
aS'08:05'
p129
aS'08:10'
p130
aS'08:15'
p131
aS'08:20'
p132
aS'08:25'
p133
aS'08:30'
p134
aS'08:35'
p135
aS'08:40'
p136
aS'08:45'
p137
aS'08:50'
p138
aS'08:55'
p139
aS'09:00'
p140
aS'09:05'
p141
aS'09:10'
p142
aS'09:15'
p143
aS'09:20'
p144
aS'09:25'
p145
aS'09:30'
p146
aS'09:35'
p147
aS'09:40'
p148
aS'09:45'
p149
aS'09:50'
p150
aS'09:55'
p151
aS'10:00'
p152
aS'10:05'
p153
aS'10:10'
p154
aS'10:15'
p155
aS'10:20'
p156
aS'10:25'
p157
aS'10:30'
p158
assS'Tmodule'
p159
(dp160
S'11105'
p161
(lp162
F9.78
aF9.87
aF9.83
aF9.83
aF9.83
aF9.93
aF9.96
aF9.85
aF9.83
aF9.88
aF9.97
aF9.93
aF9.95
aF9.96
aF9.93
aF9.93
aF9.99
aF9.93
aF9.98
aF10.17
aF10.26
aF10.47
aF10.33
aF10.25
aF10.31
aF10.33
aF10.37
aF10.23
aF10.27
aF10.41
aF10.33
aF10.33
aF10.33
aF10.18
aF9.97
aF10.06
aF10.15
aF10.01
aF9.56
aF9.21
aF9.16
aF8.87
aF8.61
aF8.39
aF8.33
aF8.33
aF8.33
aF8.45
aF8.57
aF8.68
aF8.55
aF8.16
aF8.03
aF8.03
aF8.03
aF7.93
aF7.99
aF7.95
aF7.68
aF7.41
aF7.76
aF8.25
aF8.11
aF8.03
aF8.03
aF8.27
aF9.03
aF9.53
aF9.63
aF9.61
aF9.27
aF9.11
aF8.91
aF8.88
aF9.09
aF9.21
aF9.41
aF9.51
aF9.53
aF9.73
aF9.96
aF9.95
aF10.11
aF10.21
aF10.08
aF10.01
aF9.99
aF9.33
aF9.16
aF8.96
aF9.08
aF9.37
aF9.78
aF9.69
aF9.28
aF8.95
aF8.84
aF8.97
aF8.88
aF8.83
aF8.84
aF8.93
aF8.93
aF8.96
aF9.15
aF9.31
aF9.6
aF11.06
aF13.31
aF12.88
aF11.58
aF11.81
aF14.26
aF17.51
aF18.86
aF17.26
aF15.84
aF14.25
aF13.91
aF13.96
aF14.86
aF16.06
aF15.14
aF11.36
aF11.89
aF15.51
aF16.37
assS'En_meter'
p163
(dp164
g12
(lp165
Fnan
aFnan
aFnan
aFnan
aFnan
aFnan
aFnan
aFnan
aFnan
aFnan
aFnan
aFnan
aFnan
aFnan
aFnan
aFnan
aFnan
aFnan
aFnan
aFnan
aFnan
aFnan
aFnan
aFnan
aFnan
aFnan
aFnan
aFnan
aFnan
aFnan
aFnan
aFnan
aFnan
aFnan
aFnan
aFnan
aFnan
aFnan
aFnan
aFnan
aFnan
aFnan
aFnan
aFnan
aFnan
aFnan
aFnan
aFnan
aFnan
aFnan
aFnan
aFnan
aFnan
aFnan
aFnan
aFnan
aFnan
aFnan
aFnan
aFnan
aFnan
aFnan
aFnan
aFnan
aFnan
aFnan
aFnan
aFnan
aFnan
aFnan
aFnan
aFnan
aFnan
aFnan
aFnan
aFnan
aFnan
aFnan
aFnan
aFnan
aFnan
aFnan
aFnan
aFnan
aFnan
aFnan
aFnan
aFnan
aFnan
aF21791.58
aF21791.58
aF21791.58
aF21791.58
aF21791.59
aF21791.59
aF21791.59
aF21791.6
aF21791.6
aF21791.6
aF21791.61
aF21791.63
aF21791.67
aF21791.7
aF21791.74
aF21791.77
aF21791.8
aF21791.83
aF21792.19
aF21792.56
aF21792.63
aF21792.7
aF21792.97
aF21793.42
aF21793.9
aF21794.25
aF21794.49
aF21794.75
aF21794.92
aF21795.12
aF21795.29
aF21795.6
aF21796.08
aF21796.42
aF21796.47
aF21796.82
aF21797.28
aF21797.87
asg13
(lp166
Fnan
aFnan
aFnan
aFnan
aFnan
aFnan
aFnan
aFnan
aFnan
aFnan
aFnan
aFnan
aFnan
aFnan
aFnan
aFnan
aFnan
aFnan
aFnan
aFnan
aFnan
aFnan
aFnan
aFnan
aFnan
aFnan
aFnan
aFnan
aFnan
aFnan
aFnan
aFnan
aFnan
aFnan
aFnan
aFnan
aFnan
aFnan
aFnan
aFnan
aFnan
aFnan
aFnan
aFnan
aFnan
aFnan
aFnan
aFnan
aFnan
aFnan
aFnan
aFnan
aFnan
aFnan
aFnan
aFnan
aFnan
aFnan
aFnan
aFnan
aFnan
aFnan
aFnan
aFnan
aFnan
aFnan
aFnan
aFnan
aFnan
aFnan
aFnan
aFnan
aFnan
aFnan
aFnan
aFnan
aFnan
aFnan
aFnan
aFnan
aFnan
aFnan
aFnan
aFnan
aFnan
aFnan
aFnan
aFnan
aF22950.37
aF22950.37
aF22950.37
aF22950.37
aF22950.37
aF22950.37
aF22950.38
aF22950.38
aF22950.39
aF22950.39
aF22950.39
aF22950.4
aF22950.43
aF22950.47
aF22950.5
aF22950.54
aF22950.58
aF22950.6
aF22950.64
aF22951.02
aF22951.41
aF22951.49
aF22951.57
aF22951.86
aF22952.33
aF22952.83
aF22953.21
aF22953.47
aF22953.74
aF22953.93
aF22954.15
aF22954.31
aF22954.68
aF22955.19
aF22955.51
aF22955.56
aF22955.94
aF22956.46
aF22957.08
asg14
(lp167
Fnan
aFnan
aFnan
aFnan
aFnan
aFnan
aFnan
aFnan
aFnan
aFnan
aFnan
aFnan
aFnan
aFnan
aFnan
aFnan
aFnan
aFnan
aFnan
aFnan
aFnan
aFnan
aFnan
aFnan
aFnan
aFnan
aFnan
aFnan
aFnan
aFnan
aFnan
aFnan
aFnan
aFnan
aFnan
aFnan
aFnan
aFnan
aFnan
aFnan
aFnan
aFnan
aFnan
aFnan
aFnan
aFnan
aFnan
aFnan
aFnan
aFnan
aFnan
aFnan
aFnan
aFnan
aFnan
aFnan
aFnan
aFnan
aFnan
aFnan
aFnan
aFnan
aFnan
aFnan
aFnan
aFnan
aFnan
aFnan
aFnan
aFnan
aFnan
aFnan
aFnan
aFnan
aFnan
aFnan
aFnan
aFnan
aFnan
aFnan
aFnan
aFnan
aFnan
aFnan
aFnan
aFnan
aFnan
aFnan
aFnan
aF21125.1
aF21125.1
aF21125.1
aF21125.1
aF21125.11
aF21125.12
aF21125.13
aF21125.13
aF21125.13
aF21125.13
aF21125.15
aF21125.17
aF21125.2
aF21125.23
aF21125.27
aF21125.3
aF21125.33
aF21125.37
aF21125.72
aF21126.09
aF21126.16
aF21126.24
aF21126.52
aF21126.95
aF21127.42
aF21127.76
aF21128.03
aF21128.28
aF21128.47
aF21128.68
aF21128.85
aF21129.22
aF21129.69
aF21129.99
aF21130.05
aF21130.39
aF21130.89
aF21131.46
asg15
(lp168
Fnan
aFnan
aFnan
aFnan
aFnan
aFnan
aFnan
aFnan
aFnan
aFnan
aFnan
aFnan
aFnan
aFnan
aFnan
aFnan
aFnan
aFnan
aFnan
aFnan
aFnan
aFnan
aFnan
aFnan
aFnan
aFnan
aFnan
aFnan
aFnan
aFnan
aFnan
aFnan
aFnan
aFnan
aFnan
aFnan
aFnan
aFnan
aFnan
aFnan
aFnan
aFnan
aFnan
aFnan
aFnan
aFnan
aFnan
aFnan
aFnan
aFnan
aFnan
aFnan
aFnan
aFnan
aFnan
aFnan
aFnan
aFnan
aFnan
aFnan
aFnan
aFnan
aFnan
aFnan
aFnan
aFnan
aFnan
aFnan
aFnan
aFnan
aFnan
aFnan
aFnan
aFnan
aFnan
aFnan
aFnan
aFnan
aFnan
aFnan
aFnan
aFnan
aFnan
aFnan
aFnan
aFnan
aFnan
aFnan
aF21182.36
aF21182.36
aF21182.36
aF21182.36
aF21182.36
aF21182.36
aF21182.38
aF21182.38
aF21182.38
aF21182.39
aF21182.39
aF21182.4
aF21182.43
aF21182.46
aF21182.49
aF21182.53
aF21182.56
aF21182.59
aF21182.63
aF21182.98
aF21183.35
aF21183.43
aF21183.51
aF21183.79
aF21184.22
aF21184.69
aF21185.04
aF21185.31
aF21185.56
aF21185.74
aF21185.97
aF21186.14
aF21186.52
aF21186.99
aF21187.29
aF21187.34
aF21187.7
aF21188.16
aF21188.79
asg16
(lp169
Fnan
aFnan
aFnan
aFnan
aFnan
aFnan
aFnan
aFnan
aFnan
aFnan
aFnan
aFnan
aFnan
aFnan
aFnan
aFnan
aFnan
aFnan
aFnan
aFnan
aFnan
aFnan
aFnan
aFnan
aFnan
aFnan
aFnan
aFnan
aFnan
aFnan
aFnan
aFnan
aFnan
aFnan
aFnan
aFnan
aFnan
aFnan
aFnan
aFnan
aFnan
aFnan
aFnan
aFnan
aFnan
aFnan
aFnan
aFnan
aFnan
aFnan
aFnan
aFnan
aFnan
aFnan
aFnan
aFnan
aFnan
aFnan
aFnan
aFnan
aFnan
aFnan
aFnan
aFnan
aFnan
aFnan
aFnan
aFnan
aFnan
aFnan
aFnan
aFnan
aFnan
aFnan
aFnan
aFnan
aFnan
aFnan
aFnan
aFnan
aFnan
aFnan
aFnan
aFnan
aFnan
aFnan
aFnan
aFnan
aF21117.24
aF21117.24
aF21117.24
aF21117.24
aF21117.24
aF21117.25
aF21117.26
aF21117.26
aF21117.26
aF21117.27
aF21117.27
aF21117.28
aF21117.3
aF21117.34
aF21117.37
aF21117.41
aF21117.44
aF21117.47
aF21117.51
aF21117.86
aF21118.23
aF21118.31
aF21118.38
aF21118.64
aF21119.09
aF21119.57
aF21119.92
aF21120.18
aF21120.44
aF21120.62
aF21120.83
aF21121.01
aF21121.35
aF21121.82
aF21122.16
aF21122.21
aF21122.57
aF21123.03
aF21123.66
asg17
(lp170
Fnan
aFnan
aFnan
aFnan
aFnan
aFnan
aFnan
aFnan
aFnan
aFnan
aFnan
aFnan
aFnan
aFnan
aFnan
aFnan
aFnan
aFnan
aFnan
aFnan
aFnan
aFnan
aFnan
aFnan
aFnan
aFnan
aFnan
aFnan
aFnan
aFnan
aFnan
aFnan
aFnan
aFnan
aFnan
aFnan
aFnan
aFnan
aFnan
aFnan
aFnan
aFnan
aFnan
aFnan
aFnan
aFnan
aFnan
aFnan
aFnan
aFnan
aFnan
aFnan
aFnan
aFnan
aFnan
aFnan
aFnan
aFnan
aFnan
aFnan
aFnan
aFnan
aFnan
aFnan
aFnan
aFnan
aFnan
aFnan
aFnan
aFnan
aFnan
aFnan
aFnan
aFnan
aFnan
aFnan
aFnan
aFnan
aFnan
aFnan
aFnan
aFnan
aFnan
aFnan
aFnan
aFnan
aFnan
aFnan
aFnan
aF21323.0
aF21323.0
aF21323.0
aF21323.01
aF21323.01
aF21323.02
aF21323.02
aF21323.02
aF21323.03
aF21323.03
aF21323.04
aF21323.06
aF21323.1
aF21323.13
aF21323.17
aF21323.2
aF21323.23
aF21323.27
aF21323.61
aF21323.97
aF21324.05
aF21324.12
aF21324.39
aF21324.82
aF21325.29
aF21325.65
aF21325.88
aF21326.12
aF21326.31
aF21326.5
aF21326.65
aF21326.99
aF21327.46
aF21327.76
aF21327.8
aF21328.15
aF21328.65
aF21329.22
asg18
(lp171
Fnan
aFnan
aFnan
aFnan
aFnan
aFnan
aFnan
aFnan
aFnan
aFnan
aFnan
aFnan
aFnan
aFnan
aFnan
aFnan
aFnan
aFnan
aFnan
aFnan
aFnan
aFnan
aFnan
aFnan
aFnan
aFnan
aFnan
aFnan
aFnan
aFnan
aFnan
aFnan
aFnan
aFnan
aFnan
aFnan
aFnan
aFnan
aFnan
aFnan
aFnan
aFnan
aFnan
aFnan
aFnan
aFnan
aFnan
aFnan
aFnan
aFnan
aFnan
aFnan
aFnan
aFnan
aFnan
aFnan
aFnan
aFnan
aFnan
aFnan
aFnan
aFnan
aFnan
aFnan
aFnan
aFnan
aFnan
aFnan
aFnan
aFnan
aFnan
aFnan
aFnan
aFnan
aFnan
aFnan
aFnan
aFnan
aFnan
aFnan
aFnan
aFnan
aFnan
aFnan
aFnan
aFnan
aFnan
aFnan
aFnan
aF21075.19
aF21075.19
aF21075.19
aF21075.2
aF21075.2
aF21075.21
aF21075.21
aF21075.21
aF21075.22
aF21075.22
aF21075.23
aF21075.25
aF21075.29
aF21075.31
aF21075.35
aF21075.39
aF21075.41
aF21075.45
aF21075.77
aF21076.16
aF21076.24
aF21076.31
aF21076.57
aF21077.02
aF21077.48
aF21077.82
aF21078.08
aF21078.34
aF21078.51
aF21078.72
aF21078.9
aF21079.26
aF21079.73
aF21080.06
aF21080.11
aF21080.46
aF21080.91
aF21081.49
asg23
(lp172
Fnan
aFnan
aFnan
aFnan
aFnan
aFnan
aFnan
aFnan
aFnan
aFnan
aFnan
aFnan
aFnan
aFnan
aFnan
aFnan
aFnan
aFnan
aFnan
aFnan
aFnan
aFnan
aFnan
aFnan
aFnan
aFnan
aFnan
aFnan
aFnan
aFnan
aFnan
aFnan
aFnan
aFnan
aFnan
aFnan
aFnan
aFnan
aFnan
aFnan
aFnan
aFnan
aFnan
aFnan
aFnan
aFnan
aFnan
aFnan
aFnan
aFnan
aFnan
aFnan
aFnan
aFnan
aFnan
aFnan
aFnan
aFnan
aFnan
aFnan
aFnan
aFnan
aFnan
aFnan
aFnan
aFnan
aFnan
aFnan
aFnan
aFnan
aFnan
aFnan
aFnan
aFnan
aFnan
aFnan
aFnan
aFnan
aFnan
aFnan
aFnan
aFnan
aFnan
aFnan
aFnan
aFnan
aFnan
aFnan
aF21301.52
aF21301.52
aF21301.52
aF21301.52
aF21301.52
aF21301.53
aF21301.53
aF21301.54
aF21301.54
aF21301.54
aF21301.55
aF21301.56
aF21301.58
aF21301.61
aF21301.64
aF21301.68
aF21301.72
aF21301.74
aF21301.78
aF21302.13
aF21302.49
aF21302.56
aF21302.64
aF21302.91
aF21303.34
aF21303.81
aF21304.15
aF21304.4
aF21304.65
aF21304.82
aF21305.03
aF21305.19
aF21305.54
aF21306.0
aF21306.3
aF21306.34
aF21306.7
aF21307.2
aF21307.78
asg20
(lp173
Fnan
aFnan
aFnan
aFnan
aFnan
aFnan
aFnan
aFnan
aFnan
aFnan
aFnan
aFnan
aFnan
aFnan
aFnan
aFnan
aFnan
aFnan
aFnan
aFnan
aFnan
aFnan
aFnan
aFnan
aFnan
aFnan
aFnan
aFnan
aFnan
aFnan
aFnan
aFnan
aFnan
aFnan
aFnan
aFnan
aFnan
aFnan
aFnan
aFnan
aFnan
aFnan
aFnan
aFnan
aFnan
aFnan
aFnan
aFnan
aFnan
aFnan
aFnan
aFnan
aFnan
aFnan
aFnan
aFnan
aFnan
aFnan
aFnan
aFnan
aFnan
aFnan
aFnan
aFnan
aFnan
aFnan
aFnan
aFnan
aFnan
aFnan
aFnan
aFnan
aFnan
aFnan
aFnan
aFnan
aFnan
aFnan
aFnan
aFnan
aFnan
aFnan
aFnan
aFnan
aFnan
aFnan
aFnan
aFnan
aF21345.24
aF21345.24
aF21345.24
aF21345.24
aF21345.24
aF21345.24
aF21345.25
aF21345.25
aF21345.26
aF21345.26
aF21345.26
aF21345.27
aF21345.3
aF21345.33
aF21345.36
aF21345.4
aF21345.43
aF21345.45
aF21345.49
aF21345.74
aF21346.03
aF21346.1
aF21346.16
aF21346.44
aF21346.86
aF21347.32
aF21347.66
aF21347.91
aF21348.15
aF21348.31
aF21348.51
aF21348.68
aF21349.03
aF21349.49
aF21349.78
aF21349.82
aF21350.19
aF21350.64
aF21351.26
asg21
(lp174
Fnan
aFnan
aFnan
aFnan
aFnan
aFnan
aFnan
aFnan
aFnan
aFnan
aFnan
aFnan
aFnan
aFnan
aFnan
aFnan
aFnan
aFnan
aFnan
aFnan
aFnan
aFnan
aFnan
aFnan
aFnan
aFnan
aFnan
aFnan
aFnan
aFnan
aFnan
aFnan
aFnan
aFnan
aFnan
aFnan
aFnan
aFnan
aFnan
aFnan
aFnan
aFnan
aFnan
aFnan
aFnan
aFnan
aFnan
aFnan
aFnan
aFnan
aFnan
aFnan
aFnan
aFnan
aFnan
aFnan
aFnan
aFnan
aFnan
aFnan
aFnan
aFnan
aFnan
aFnan
aFnan
aFnan
aFnan
aFnan
aFnan
aFnan
aFnan
aFnan
aFnan
aFnan
aFnan
aFnan
aFnan
aFnan
aFnan
aFnan
aFnan
aFnan
aFnan
aFnan
aFnan
aFnan
aFnan
aFnan
aF20790.33
aF20790.33
aF20790.33
aF20790.33
aF20790.33
aF20790.33
aF20790.34
aF20790.34
aF20790.34
aF20790.35
aF20790.35
aF20790.36
aF20790.39
aF20790.42
aF20790.45
aF20790.49
aF20790.52
aF20790.54
aF20790.59
aF20790.93
aF20791.29
aF20791.37
aF20791.44
aF20791.72
aF20792.14
aF20792.61
aF20792.95
aF20793.21
aF20793.46
aF20793.64
aF20793.84
aF20794.03
aF20794.41
aF20794.88
aF20795.18
aF20795.23
aF20795.59
aF20796.04
aF20796.65
asg22
(lp175
Fnan
aFnan
aFnan
aFnan
aFnan
aFnan
aFnan
aFnan
aFnan
aFnan
aFnan
aFnan
aFnan
aFnan
aFnan
aFnan
aFnan
aFnan
aFnan
aFnan
aFnan
aFnan
aFnan
aFnan
aFnan
aFnan
aFnan
aFnan
aFnan
aFnan
aFnan
aFnan
aFnan
aFnan
aFnan
aFnan
aFnan
aFnan
aFnan
aFnan
aFnan
aFnan
aFnan
aFnan
aFnan
aFnan
aFnan
aFnan
aFnan
aFnan
aFnan
aFnan
aFnan
aFnan
aFnan
aFnan
aFnan
aFnan
aFnan
aFnan
aFnan
aFnan
aFnan
aFnan
aFnan
aFnan
aFnan
aFnan
aFnan
aFnan
aFnan
aFnan
aFnan
aFnan
aFnan
aFnan
aFnan
aFnan
aFnan
aFnan
aFnan
aFnan
aFnan
aFnan
aFnan
aFnan
aFnan
aFnan
aFnan
aF21312.25
aF21312.25
aF21312.25
aF21312.25
aF21312.26
aF21312.26
aF21312.27
aF21312.27
aF21312.27
aF21312.27
aF21312.28
aF21312.31
aF21312.34
aF21312.37
aF21312.4
aF21312.44
aF21312.46
aF21312.5
aF21312.75
aF21313.05
aF21313.12
aF21313.19
aF21313.44
aF21313.88
aF21314.34
aF21314.69
aF21314.93
aF21315.18
aF21315.35
aF21315.55
aF21315.72
aF21316.04
aF21316.5
aF21316.83
aF21316.88
aF21317.23
aF21317.69
aF21318.27
asg19
(lp176
Fnan
aFnan
aFnan
aFnan
aFnan
aFnan
aFnan
aFnan
aFnan
aFnan
aFnan
aFnan
aFnan
aFnan
aFnan
aFnan
aFnan
aFnan
aFnan
aFnan
aFnan
aFnan
aFnan
aFnan
aFnan
aFnan
aFnan
aFnan
aFnan
aFnan
aFnan
aFnan
aFnan
aFnan
aFnan
aFnan
aFnan
aFnan
aFnan
aFnan
aFnan
aFnan
aFnan
aFnan
aFnan
aFnan
aFnan
aFnan
aFnan
aFnan
aFnan
aFnan
aFnan
aFnan
aFnan
aFnan
aFnan
aFnan
aFnan
aFnan
aFnan
aFnan
aFnan
aFnan
aFnan
aFnan
aFnan
aFnan
aFnan
aFnan
aFnan
aFnan
aFnan
aFnan
aFnan
aFnan
aFnan
aFnan
aFnan
aFnan
aFnan
aFnan
aFnan
aFnan
aFnan
aFnan
aFnan
aFnan
aFnan
aF21193.98
aF21193.98
aF21193.98
aF21193.99
aF21193.99
aF21193.99
aF21194.0
aF21194.0
aF21194.0
aF21194.01
aF21194.02
aF21194.04
aF21194.07
aF21194.1
aF21194.14
aF21194.17
aF21194.2
aF21194.23
aF21194.59
aF21194.94
aF21195.02
aF21195.09
aF21195.35
aF21195.8
aF21196.26
aF21196.61
aF21196.86
aF21197.12
aF21197.3
aF21197.5
aF21197.68
aF21198.02
aF21198.5
aF21198.83
aF21198.88
aF21199.24
aF21199.7
aF21200.32
assS'Pac'
p177
(dp178
S'2001232057'
p179
(lp180
Fnan
aFnan
aFnan
aFnan
aFnan
aFnan
aFnan
aFnan
aFnan
aFnan
aFnan
aFnan
aFnan
aFnan
aFnan
aFnan
aFnan
aFnan
aFnan
aFnan
aFnan
aFnan
aFnan
aFnan
aFnan
aFnan
aFnan
aFnan
aFnan
aFnan
aFnan
aFnan
aFnan
aFnan
aFnan
aFnan
aFnan
aFnan
aFnan
aFnan
aFnan
aFnan
aFnan
aFnan
aFnan
aFnan
aFnan
aFnan
aFnan
aFnan
aFnan
aFnan
aFnan
aFnan
aFnan
aFnan
aFnan
aFnan
aFnan
aFnan
aFnan
aFnan
aFnan
aFnan
aFnan
aFnan
aFnan
aFnan
aFnan
aFnan
aFnan
aFnan
aFnan
aFnan
aFnan
aFnan
aFnan
aFnan
aFnan
aFnan
aFnan
aFnan
aFnan
aFnan
aFnan
aFnan
aFnan
aFnan
aFnan
aF0.0
aF0.0
aF10.33
aF43.62
aF45.31
aF51.33
aF44.25
aF23.62
aF33.33
aF39.23
aF130.85
aF275.33
aF412.92
aF333.83
aF508.62
aF369.17
aF300.0
aF468.25
aF4168.85
aF4117.15
aF934.0
aF868.46
aF3486.38
aF5398.31
aF5540.5
aF4244.85
aF3046.75
aF2998.15
aF2231.0
aF2445.75
aF1801.23
aF4247.17
aF5920.67
aF3668.0
aF571.23
aF4783.25
aF6742.1
aF6552.21
asS'2001257130'
p181
(lp182
Fnan
aFnan
aFnan
aFnan
aFnan
aFnan
aFnan
aFnan
aFnan
aFnan
aFnan
aFnan
aFnan
aFnan
aFnan
aFnan
aFnan
aFnan
aFnan
aFnan
aFnan
aFnan
aFnan
aFnan
aFnan
aFnan
aFnan
aFnan
aFnan
aFnan
aFnan
aFnan
aFnan
aFnan
aFnan
aFnan
aFnan
aFnan
aFnan
aFnan
aFnan
aFnan
aFnan
aFnan
aFnan
aFnan
aFnan
aFnan
aFnan
aFnan
aFnan
aFnan
aFnan
aFnan
aFnan
aFnan
aFnan
aFnan
aFnan
aFnan
aFnan
aFnan
aFnan
aFnan
aFnan
aFnan
aFnan
aFnan
aFnan
aFnan
aFnan
aFnan
aFnan
aFnan
aFnan
aFnan
aFnan
aFnan
aFnan
aFnan
aFnan
aFnan
aFnan
aFnan
aFnan
aFnan
aFnan
aFnan
aF0.0
aF0.0
aF0.0
aF0.0
aF0.0
aF3.92
aF58.91
aF51.31
aF28.54
aF36.09
aF42.54
aF142.62
aF305.08
aF443.92
aF363.77
aF559.08
aF393.38
aF300.08
aF520.92
aF4759.58
aF4397.31
aF953.92
aF919.77
aF3906.31
aF5931.67
aF5925.08
aF4506.31
aF3104.23
aF3307.33
aF2334.08
aF2478.62
aF1925.5
aF4608.92
aF6246.58
aF3772.58
aF593.31
aF5050.83
aF6987.18
aF6979.21
asS'2001360643'
p183
(lp184
Fnan
aFnan
aFnan
aFnan
aFnan
aFnan
aFnan
aFnan
aFnan
aFnan
aFnan
aFnan
aFnan
aFnan
aFnan
aFnan
aFnan
aFnan
aFnan
aFnan
aFnan
aFnan
aFnan
aFnan
aFnan
aFnan
aFnan
aFnan
aFnan
aFnan
aFnan
aFnan
aFnan
aFnan
aFnan
aFnan
aFnan
aFnan
aFnan
aFnan
aFnan
aFnan
aFnan
aFnan
aFnan
aFnan
aFnan
aFnan
aFnan
aFnan
aFnan
aFnan
aFnan
aFnan
aFnan
aFnan
aFnan
aFnan
aFnan
aFnan
aFnan
aFnan
aFnan
aFnan
aFnan
aFnan
aFnan
aFnan
aFnan
aFnan
aFnan
aFnan
aFnan
aFnan
aFnan
aFnan
aFnan
aFnan
aFnan
aFnan
aFnan
aFnan
aFnan
aFnan
aFnan
aFnan
aFnan
aFnan
aFnan
aF0.0
aF0.0
aF9.92
aF47.77
aF66.69
aF149.27
aF42.85
aF22.92
aF32.36
aF36.77
aF136.14
aF284.67
aF411.33
aF334.62
aF504.42
aF365.92
aF301.69
aF528.08
aF4400.58
aF4157.15
aF912.58
aF892.85
aF3746.46
aF5428.08
aF5487.75
aF4188.15
aF3012.62
aF3171.75
aF2263.07
aF2539.25
aF1836.33
aF4703.0
aF5799.33
aF3482.0
aF590.43
aF4990.55
aF6629.64
aF6480.57
asS'2001360612'
p185
(lp186
Fnan
aFnan
aFnan
aFnan
aFnan
aFnan
aFnan
aFnan
aFnan
aFnan
aFnan
aFnan
aFnan
aFnan
aFnan
aFnan
aFnan
aFnan
aFnan
aFnan
aFnan
aFnan
aFnan
aFnan
aFnan
aFnan
aFnan
aFnan
aFnan
aFnan
aFnan
aFnan
aFnan
aFnan
aFnan
aFnan
aFnan
aFnan
aFnan
aFnan
aFnan
aFnan
aFnan
aFnan
aFnan
aFnan
aFnan
aFnan
aFnan
aFnan
aFnan
aFnan
aFnan
aFnan
aFnan
aFnan
aFnan
aFnan
aFnan
aFnan
aFnan
aFnan
aFnan
aFnan
aFnan
aFnan
aFnan
aFnan
aFnan
aFnan
aFnan
aFnan
aFnan
aFnan
aFnan
aFnan
aFnan
aFnan
aFnan
aFnan
aFnan
aFnan
aFnan
aFnan
aFnan
aFnan
aFnan
aFnan
aF0.0
aF0.0
aF0.0
aF0.0
aF0.0
aF60.92
aF194.36
aF48.08
aF27.69
aF36.64
aF40.23
aF132.15
aF291.46
aF419.33
aF344.31
aF515.0
aF375.0
aF307.46
aF531.67
aF4410.25
aF4182.15
aF926.5
aF898.92
aF3737.15
aF5416.67
aF5530.25
aF4227.46
aF2963.08
aF3190.33
aF2319.69
aF2566.69
aF1878.67
aF4971.69
aF5826.25
aF3525.67
aF593.77
aF4745.5
aF6687.2
aF6523.47
asS'2001360610'
p187
(lp188
Fnan
aFnan
aFnan
aFnan
aFnan
aFnan
aFnan
aFnan
aFnan
aFnan
aFnan
aFnan
aFnan
aFnan
aFnan
aFnan
aFnan
aFnan
aFnan
aFnan
aFnan
aFnan
aFnan
aFnan
aFnan
aFnan
aFnan
aFnan
aFnan
aFnan
aFnan
aFnan
aFnan
aFnan
aFnan
aFnan
aFnan
aFnan
aFnan
aFnan
aFnan
aFnan
aFnan
aFnan
aFnan
aFnan
aFnan
aFnan
aFnan
aFnan
aFnan
aFnan
aFnan
aFnan
aFnan
aFnan
aFnan
aFnan
aFnan
aFnan
aFnan
aFnan
aFnan
aFnan
aFnan
aFnan
aFnan
aFnan
aFnan
aFnan
aFnan
aFnan
aFnan
aFnan
aFnan
aFnan
aFnan
aFnan
aFnan
aFnan
aFnan
aFnan
aFnan
aFnan
aFnan
aFnan
aFnan
aFnan
aF0.0
aF0.0
aF0.0
aF0.0
aF0.0
aF46.38
aF154.0
aF40.08
aF23.77
aF34.08
aF37.54
aF133.85
aF276.75
aF423.85
aF330.42
aF509.77
aF375.38
aF308.08
aF518.85
aF4400.5
aF4180.31
aF922.75
aF885.33
aF3517.77
aF5328.31
aF5517.83
aF4197.31
aF3099.33
aF3091.0
aF2295.15
aF2542.33
aF1917.46
aF4729.92
aF5901.83
aF3650.46
aF590.85
aF4759.33
aF6692.8
aF6514.73
asS'2001232083'
p189
(lp190
Fnan
aFnan
aFnan
aFnan
aFnan
aFnan
aFnan
aFnan
aFnan
aFnan
aFnan
aFnan
aFnan
aFnan
aFnan
aFnan
aFnan
aFnan
aFnan
aFnan
aFnan
aFnan
aFnan
aFnan
aFnan
aFnan
aFnan
aFnan
aFnan
aFnan
aFnan
aFnan
aFnan
aFnan
aFnan
aFnan
aFnan
aFnan
aFnan
aFnan
aFnan
aFnan
aFnan
aFnan
aFnan
aFnan
aFnan
aFnan
aFnan
aFnan
aFnan
aFnan
aFnan
aFnan
aFnan
aFnan
aFnan
aFnan
aFnan
aFnan
aFnan
aFnan
aFnan
aFnan
aFnan
aFnan
aFnan
aFnan
aFnan
aFnan
aFnan
aFnan
aFnan
aFnan
aFnan
aFnan
aFnan
aFnan
aFnan
aFnan
aFnan
aFnan
aFnan
aFnan
aFnan
aFnan
aFnan
aFnan
aFnan
aF0.0
aF0.0
aF12.33
aF47.31
aF47.46
aF55.09
aF48.46
aF24.85
aF38.18
aF40.15
aF145.21
aF289.92
aF407.42
aF340.15
aF512.33
aF363.31
aF292.69
aF510.17
aF4383.0
aF4061.85
aF901.17
aF871.0
aF3586.46
aF5456.25
aF5452.0
aF4191.0
aF2774.92
aF3044.17
aF2177.43
aF2340.25
aF1781.42
aF4244.69
aF5755.75
aF3252.92
aF558.31
aF5057.45
aF6583.27
aF6429.71
asS'2001232087'
p191
(lp192
Fnan
aFnan
aFnan
aFnan
aFnan
aFnan
aFnan
aFnan
aFnan
aFnan
aFnan
aFnan
aFnan
aFnan
aFnan
aFnan
aFnan
aFnan
aFnan
aFnan
aFnan
aFnan
aFnan
aFnan
aFnan
aFnan
aFnan
aFnan
aFnan
aFnan
aFnan
aFnan
aFnan
aFnan
aFnan
aFnan
aFnan
aFnan
aFnan
aFnan
aFnan
aFnan
aFnan
aFnan
aFnan
aFnan
aFnan
aFnan
aFnan
aFnan
aFnan
aFnan
aFnan
aFnan
aFnan
aFnan
aFnan
aFnan
aFnan
aFnan
aFnan
aFnan
aFnan
aFnan
aFnan
aFnan
aFnan
aFnan
aFnan
aFnan
aFnan
aFnan
aFnan
aFnan
aFnan
aFnan
aFnan
aFnan
aFnan
aFnan
aFnan
aFnan
aFnan
aFnan
aFnan
aFnan
aFnan
aFnan
aFnan
aF0.0
aF0.0
aF8.42
aF43.38
aF49.54
aF52.83
aF48.5
aF27.15
aF34.83
aF38.92
aF135.15
aF273.5
aF420.75
aF326.85
aF503.33
aF373.15
aF313.08
aF496.67
aF4007.17
aF4135.21
aF928.18
aF873.92
aF3453.54
aF5162.85
aF5427.92
aF4115.46
aF3076.25
aF2952.38
aF2318.69
aF2621.25
aF2050.42
aF4837.92
aF5774.33
aF3632.54
aF583.92
aF4473.92
aF6578.2
aF6394.5
asS'2001360584'
p193
(lp194
Fnan
aFnan
aFnan
aFnan
aFnan
aFnan
aFnan
aFnan
aFnan
aFnan
aFnan
aFnan
aFnan
aFnan
aFnan
aFnan
aFnan
aFnan
aFnan
aFnan
aFnan
aFnan
aFnan
aFnan
aFnan
aFnan
aFnan
aFnan
aFnan
aFnan
aFnan
aFnan
aFnan
aFnan
aFnan
aFnan
aFnan
aFnan
aFnan
aFnan
aFnan
aFnan
aFnan
aFnan
aFnan
aFnan
aFnan
aFnan
aFnan
aFnan
aFnan
aFnan
aFnan
aFnan
aFnan
aFnan
aFnan
aFnan
aFnan
aFnan
aFnan
aFnan
aFnan
aFnan
aFnan
aFnan
aFnan
aFnan
aFnan
aFnan
aFnan
aFnan
aFnan
aFnan
aFnan
aFnan
aFnan
aFnan
aFnan
aFnan
aFnan
aFnan
aFnan
aFnan
aFnan
aFnan
aFnan
aFnan
aF0.0
aF0.0
aF0.0
aF12.58
aF47.0
aF48.62
aF59.64
aF46.85
aF23.62
aF38.64
aF37.77
aF131.23
aF280.77
aF406.67
aF337.85
aF509.83
aF365.77
aF277.92
aF489.42
aF4404.42
aF4083.0
aF881.0
aF844.92
aF3702.69
aF5448.25
aF5450.92
aF4151.46
aF2831.46
aF3025.25
aF2200.92
aF2352.85
aF1797.42
aF4527.38
aF5654.67
aF3446.5
aF533.85
aF4649.5
aF6647.09
aF6462.14
asS'2001360581'
p195
(lp196
Fnan
aFnan
aFnan
aFnan
aFnan
aFnan
aFnan
aFnan
aFnan
aFnan
aFnan
aFnan
aFnan
aFnan
aFnan
aFnan
aFnan
aFnan
aFnan
aFnan
aFnan
aFnan
aFnan
aFnan
aFnan
aFnan
aFnan
aFnan
aFnan
aFnan
aFnan
aFnan
aFnan
aFnan
aFnan
aFnan
aFnan
aFnan
aFnan
aFnan
aFnan
aFnan
aFnan
aFnan
aFnan
aFnan
aFnan
aFnan
aFnan
aFnan
aFnan
aFnan
aFnan
aFnan
aFnan
aFnan
aFnan
aFnan
aFnan
aFnan
aFnan
aFnan
aFnan
aFnan
aFnan
aFnan
aFnan
aFnan
aFnan
aFnan
aFnan
aFnan
aFnan
aFnan
aFnan
aFnan
aFnan
aFnan
aFnan
aFnan
aFnan
aFnan
aFnan
aFnan
aFnan
aFnan
aFnan
aFnan
aF0.0
aF0.0
aF0.0
aF0.0
aF0.0
aF39.92
aF62.73
aF46.23
aF25.92
aF35.0
aF41.92
aF138.23
aF285.92
aF390.58
aF328.46
aF480.25
aF366.62
aF263.92
aF452.67
aF3156.83
aF3368.46
aF812.5
aF770.83
aF3399.71
aF5330.5
aF5385.58
aF4109.54
aF2792.38
aF2972.0
aF2183.31
aF2328.08
aF1812.62
aF4611.77
aF5616.08
aF3393.0
aF516.31
aF4631.08
aF6671.8
aF6436.8
asS'2001360580'
p197
(lp198
Fnan
aFnan
aFnan
aFnan
aFnan
aFnan
aFnan
aFnan
aFnan
aFnan
aFnan
aFnan
aFnan
aFnan
aFnan
aFnan
aFnan
aFnan
aFnan
aFnan
aFnan
aFnan
aFnan
aFnan
aFnan
aFnan
aFnan
aFnan
aFnan
aFnan
aFnan
aFnan
aFnan
aFnan
aFnan
aFnan
aFnan
aFnan
aFnan
aFnan
aFnan
aFnan
aFnan
aFnan
aFnan
aFnan
aFnan
aFnan
aFnan
aFnan
aFnan
aFnan
aFnan
aFnan
aFnan
aFnan
aFnan
aFnan
aFnan
aFnan
aFnan
aFnan
aFnan
aFnan
aFnan
aFnan
aFnan
aFnan
aFnan
aFnan
aFnan
aFnan
aFnan
aFnan
aFnan
aFnan
aFnan
aFnan
aFnan
aFnan
aFnan
aFnan
aFnan
aFnan
aFnan
aFnan
aFnan
aFnan
aF0.0
aF0.0
aF0.0
aF10.85
aF45.85
aF45.17
aF53.25
aF46.62
aF25.67
aF34.17
aF38.92
aF134.31
aF287.23
aF406.33
aF330.54
aF494.75
aF363.38
aF296.46
aF527.42
aF4325.0
aF4093.0
aF894.58
aF863.42
aF3465.57
aF5265.08
aF5421.67
aF4113.23
aF2924.77
aF3084.5
aF2330.08
aF2663.08
aF1976.62
aF5139.31
aF5732.83
aF3516.92
aF578.69
aF4486.67
aF6629.2
aF6433.53
asS'2001360638'
p199
(lp200
Fnan
aFnan
aFnan
aFnan
aFnan
aFnan
aFnan
aFnan
aFnan
aFnan
aFnan
aFnan
aFnan
aFnan
aFnan
aFnan
aFnan
aFnan
aFnan
aFnan
aFnan
aFnan
aFnan
aFnan
aFnan
aFnan
aFnan
aFnan
aFnan
aFnan
aFnan
aFnan
aFnan
aFnan
aFnan
aFnan
aFnan
aFnan
aFnan
aFnan
aFnan
aFnan
aFnan
aFnan
aFnan
aFnan
aFnan
aFnan
aFnan
aFnan
aFnan
aFnan
aFnan
aFnan
aFnan
aFnan
aFnan
aFnan
aFnan
aFnan
aFnan
aFnan
aFnan
aFnan
aFnan
aFnan
aFnan
aFnan
aFnan
aFnan
aFnan
aFnan
aFnan
aFnan
aFnan
aFnan
aFnan
aFnan
aFnan
aFnan
aFnan
aFnan
aFnan
aFnan
aFnan
aFnan
aFnan
aFnan
aFnan
aF0.0
aF0.0
aF0.0
aF0.0
aF33.69
aF53.25
aF45.83
aF26.0
aF32.92
aF38.15
aF133.31
aF278.33
aF390.0
aF325.42
aF475.17
aF374.0
aF292.23
aF433.42
aF2979.46
aF3396.69
aF857.45
aF800.62
aF3394.46
aF5209.62
aF5388.33
aF4112.15
aF2898.75
aF2885.31
aF2229.0
aF2403.67
aF1844.77
aF4577.08
aF5678.25
aF3577.38
aF543.08
aF4480.83
aF6648.8
aF6440.5
asS'2001360579'
p201
(lp202
Fnan
aFnan
aFnan
aFnan
aFnan
aFnan
aFnan
aFnan
aFnan
aFnan
aFnan
aFnan
aFnan
aFnan
aFnan
aFnan
aFnan
aFnan
aFnan
aFnan
aFnan
aFnan
aFnan
aFnan
aFnan
aFnan
aFnan
aFnan
aFnan
aFnan
aFnan
aFnan
aFnan
aFnan
aFnan
aFnan
aFnan
aFnan
aFnan
aFnan
aFnan
aFnan
aFnan
aFnan
aFnan
aFnan
aFnan
aFnan
aFnan
aFnan
aFnan
aFnan
aFnan
aFnan
aFnan
aFnan
aFnan
aFnan
aFnan
aFnan
aFnan
aFnan
aFnan
aFnan
aFnan
aFnan
aFnan
aFnan
aFnan
aFnan
aFnan
aFnan
aFnan
aFnan
aFnan
aFnan
aFnan
aFnan
aFnan
aFnan
aFnan
aFnan
aFnan
aFnan
aFnan
aFnan
aFnan
aFnan
aFnan
aF0.0
aF0.0
aF11.08
aF45.08
aF49.54
aF51.25
aF46.83
aF25.62
aF34.75
aF36.69
aF130.46
aF274.92
aF398.69
aF316.75
aF489.08
aF363.5
aF303.92
aF477.5
aF4056.54
aF4088.85
aF884.75
aF859.17
aF3435.62
aF5194.23
aF5451.92
aF4120.62
aF3031.92
aF2962.54
aF2329.15
aF2551.67
aF1948.31
aF4982.83
aF5841.83
aF3674.77
aF576.69
aF4539.0
aF6678.8
aF6483.8
assS'SN'
p203
(dp204
S'2001232057'
p205
(lp206
Fnan
aFnan
aFnan
aFnan
aFnan
aFnan
aFnan
aFnan
aFnan
aFnan
aFnan
aFnan
aFnan
aFnan
aFnan
aFnan
aFnan
aFnan
aFnan
aFnan
aFnan
aFnan
aFnan
aFnan
aFnan
aFnan
aFnan
aFnan
aFnan
aFnan
aFnan
aFnan
aFnan
aFnan
aFnan
aFnan
aFnan
aFnan
aFnan
aFnan
aFnan
aFnan
aFnan
aFnan
aFnan
aFnan
aFnan
aFnan
aFnan
aFnan
aFnan
aFnan
aFnan
aFnan
aFnan
aFnan
aFnan
aFnan
aFnan
aFnan
aFnan
aFnan
aFnan
aFnan
aFnan
aFnan
aFnan
aFnan
aFnan
aFnan
aFnan
aFnan
aFnan
aFnan
aFnan
aFnan
aFnan
aFnan
aFnan
aFnan
aFnan
aFnan
aFnan
aFnan
aFnan
aFnan
aFnan
aFnan
aFnan
aF2001232057.0
aF2001232057.0
aF2001232057.0
aF2001232057.0
aF2001232057.0
aF2001232057.0
aF2001232057.0
aF2001232057.0
aF2001232057.0
aF2001232057.0
aF2001232057.0
aF2001232057.0
aF2001232057.0
aF2001232057.0
aF2001232057.0
aF2001232057.0
aF2001232057.0
aF2001232057.0
aF2001232057.0
aF2001232057.0
aF2001232057.0
aF2001232057.0
aF2001232057.0
aF2001232057.0
aF2001232057.0
aF2001232057.0
aF2001232057.0
aF2001232057.0
aF2001232057.0
aF2001232057.0
aF2001232057.0
aF2001232057.0
aF2001232057.0
aF2001232057.0
aF2001232057.0
aF2001232057.0
aF2001232057.0
aF2001232057.0
asS'2001257130'
p207
(lp208
Fnan
aFnan
aFnan
aFnan
aFnan
aFnan
aFnan
aFnan
aFnan
aFnan
aFnan
aFnan
aFnan
aFnan
aFnan
aFnan
aFnan
aFnan
aFnan
aFnan
aFnan
aFnan
aFnan
aFnan
aFnan
aFnan
aFnan
aFnan
aFnan
aFnan
aFnan
aFnan
aFnan
aFnan
aFnan
aFnan
aFnan
aFnan
aFnan
aFnan
aFnan
aFnan
aFnan
aFnan
aFnan
aFnan
aFnan
aFnan
aFnan
aFnan
aFnan
aFnan
aFnan
aFnan
aFnan
aFnan
aFnan
aFnan
aFnan
aFnan
aFnan
aFnan
aFnan
aFnan
aFnan
aFnan
aFnan
aFnan
aFnan
aFnan
aFnan
aFnan
aFnan
aFnan
aFnan
aFnan
aFnan
aFnan
aFnan
aFnan
aFnan
aFnan
aFnan
aFnan
aFnan
aFnan
aFnan
aFnan
aF2001257130.0
aF2001257130.0
aF2001257130.0
aF2001257130.0
aF2001257130.0
aF2001257130.0
aF2001257130.0
aF2001257130.0
aF2001257130.0
aF2001257130.0
aF2001257130.0
aF2001257130.0
aF2001257130.0
aF2001257130.0
aF2001257130.0
aF2001257130.0
aF2001257130.0
aF2001257130.0
aF2001257130.0
aF2001257130.0
aF2001257130.0
aF2001257130.0
aF2001257130.0
aF2001257130.0
aF2001257130.0
aF2001257130.0
aF2001257130.0
aF2001257130.0
aF2001257130.0
aF2001257130.0
aF2001257130.0
aF2001257130.0
aF2001257130.0
aF2001257130.0
aF2001257130.0
aF2001257130.0
aF2001257130.0
aF2001257130.0
aF2001257130.0
asS'2001360643'
p209
(lp210
Fnan
aFnan
aFnan
aFnan
aFnan
aFnan
aFnan
aFnan
aFnan
aFnan
aFnan
aFnan
aFnan
aFnan
aFnan
aFnan
aFnan
aFnan
aFnan
aFnan
aFnan
aFnan
aFnan
aFnan
aFnan
aFnan
aFnan
aFnan
aFnan
aFnan
aFnan
aFnan
aFnan
aFnan
aFnan
aFnan
aFnan
aFnan
aFnan
aFnan
aFnan
aFnan
aFnan
aFnan
aFnan
aFnan
aFnan
aFnan
aFnan
aFnan
aFnan
aFnan
aFnan
aFnan
aFnan
aFnan
aFnan
aFnan
aFnan
aFnan
aFnan
aFnan
aFnan
aFnan
aFnan
aFnan
aFnan
aFnan
aFnan
aFnan
aFnan
aFnan
aFnan
aFnan
aFnan
aFnan
aFnan
aFnan
aFnan
aFnan
aFnan
aFnan
aFnan
aFnan
aFnan
aFnan
aFnan
aFnan
aFnan
aF2001360643.0
aF2001360643.0
aF2001360643.0
aF2001360643.0
aF2001360643.0
aF2001360643.0
aF2001360643.0
aF2001360643.0
aF2001360643.0
aF2001360643.0
aF2001360643.0
aF2001360643.0
aF2001360643.0
aF2001360643.0
aF2001360643.0
aF2001360643.0
aF2001360643.0
aF2001360643.0
aF2001360643.0
aF2001360643.0
aF2001360643.0
aF2001360643.0
aF2001360643.0
aF2001360643.0
aF2001360643.0
aF2001360643.0
aF2001360643.0
aF2001360643.0
aF2001360643.0
aF2001360643.0
aF2001360643.0
aF2001360643.0
aF2001360643.0
aF2001360643.0
aF2001360643.0
aF2001360643.0
aF2001360643.0
aF2001360643.0
asS'2001360612'
p211
(lp212
Fnan
aFnan
aFnan
aFnan
aFnan
aFnan
aFnan
aFnan
aFnan
aFnan
aFnan
aFnan
aFnan
aFnan
aFnan
aFnan
aFnan
aFnan
aFnan
aFnan
aFnan
aFnan
aFnan
aFnan
aFnan
aFnan
aFnan
aFnan
aFnan
aFnan
aFnan
aFnan
aFnan
aFnan
aFnan
aFnan
aFnan
aFnan
aFnan
aFnan
aFnan
aFnan
aFnan
aFnan
aFnan
aFnan
aFnan
aFnan
aFnan
aFnan
aFnan
aFnan
aFnan
aFnan
aFnan
aFnan
aFnan
aFnan
aFnan
aFnan
aFnan
aFnan
aFnan
aFnan
aFnan
aFnan
aFnan
aFnan
aFnan
aFnan
aFnan
aFnan
aFnan
aFnan
aFnan
aFnan
aFnan
aFnan
aFnan
aFnan
aFnan
aFnan
aFnan
aFnan
aFnan
aFnan
aFnan
aFnan
aF2001360612.0
aF2001360612.0
aF2001360612.0
aF2001360612.0
aF2001360612.0
aF2001360612.0
aF2001360612.0
aF2001360612.0
aF2001360612.0
aF2001360612.0
aF2001360612.0
aF2001360612.0
aF2001360612.0
aF2001360612.0
aF2001360612.0
aF2001360612.0
aF2001360612.0
aF2001360612.0
aF2001360612.0
aF2001360612.0
aF2001360612.0
aF2001360612.0
aF2001360612.0
aF2001360612.0
aF2001360612.0
aF2001360612.0
aF2001360612.0
aF2001360612.0
aF2001360612.0
aF2001360612.0
aF2001360612.0
aF2001360612.0
aF2001360612.0
aF2001360612.0
aF2001360612.0
aF2001360612.0
aF2001360612.0
aF2001360612.0
aF2001360612.0
asS'2001360610'
p213
(lp214
Fnan
aFnan
aFnan
aFnan
aFnan
aFnan
aFnan
aFnan
aFnan
aFnan
aFnan
aFnan
aFnan
aFnan
aFnan
aFnan
aFnan
aFnan
aFnan
aFnan
aFnan
aFnan
aFnan
aFnan
aFnan
aFnan
aFnan
aFnan
aFnan
aFnan
aFnan
aFnan
aFnan
aFnan
aFnan
aFnan
aFnan
aFnan
aFnan
aFnan
aFnan
aFnan
aFnan
aFnan
aFnan
aFnan
aFnan
aFnan
aFnan
aFnan
aFnan
aFnan
aFnan
aFnan
aFnan
aFnan
aFnan
aFnan
aFnan
aFnan
aFnan
aFnan
aFnan
aFnan
aFnan
aFnan
aFnan
aFnan
aFnan
aFnan
aFnan
aFnan
aFnan
aFnan
aFnan
aFnan
aFnan
aFnan
aFnan
aFnan
aFnan
aFnan
aFnan
aFnan
aFnan
aFnan
aFnan
aFnan
aF2001360610.0
aF2001360610.0
aF2001360610.0
aF2001360610.0
aF2001360610.0
aF2001360610.0
aF2001360610.0
aF2001360610.0
aF2001360610.0
aF2001360610.0
aF2001360610.0
aF2001360610.0
aF2001360610.0
aF2001360610.0
aF2001360610.0
aF2001360610.0
aF2001360610.0
aF2001360610.0
aF2001360610.0
aF2001360610.0
aF2001360610.0
aF2001360610.0
aF2001360610.0
aF2001360610.0
aF2001360610.0
aF2001360610.0
aF2001360610.0
aF2001360610.0
aF2001360610.0
aF2001360610.0
aF2001360610.0
aF2001360610.0
aF2001360610.0
aF2001360610.0
aF2001360610.0
aF2001360610.0
aF2001360610.0
aF2001360610.0
aF2001360610.0
asS'2001232083'
p215
(lp216
Fnan
aFnan
aFnan
aFnan
aFnan
aFnan
aFnan
aFnan
aFnan
aFnan
aFnan
aFnan
aFnan
aFnan
aFnan
aFnan
aFnan
aFnan
aFnan
aFnan
aFnan
aFnan
aFnan
aFnan
aFnan
aFnan
aFnan
aFnan
aFnan
aFnan
aFnan
aFnan
aFnan
aFnan
aFnan
aFnan
aFnan
aFnan
aFnan
aFnan
aFnan
aFnan
aFnan
aFnan
aFnan
aFnan
aFnan
aFnan
aFnan
aFnan
aFnan
aFnan
aFnan
aFnan
aFnan
aFnan
aFnan
aFnan
aFnan
aFnan
aFnan
aFnan
aFnan
aFnan
aFnan
aFnan
aFnan
aFnan
aFnan
aFnan
aFnan
aFnan
aFnan
aFnan
aFnan
aFnan
aFnan
aFnan
aFnan
aFnan
aFnan
aFnan
aFnan
aFnan
aFnan
aFnan
aFnan
aFnan
aFnan
aF2001232083.0
aF2001232083.0
aF2001232083.0
aF2001232083.0
aF2001232083.0
aF2001232083.0
aF2001232083.0
aF2001232083.0
aF2001232083.0
aF2001232083.0
aF2001232083.0
aF2001232083.0
aF2001232083.0
aF2001232083.0
aF2001232083.0
aF2001232083.0
aF2001232083.0
aF2001232083.0
aF2001232083.0
aF2001232083.0
aF2001232083.0
aF2001232083.0
aF2001232083.0
aF2001232083.0
aF2001232083.0
aF2001232083.0
aF2001232083.0
aF2001232083.0
aF2001232083.0
aF2001232083.0
aF2001232083.0
aF2001232083.0
aF2001232083.0
aF2001232083.0
aF2001232083.0
aF2001232083.0
aF2001232083.0
aF2001232083.0
asS'2001232087'
p217
(lp218
Fnan
aFnan
aFnan
aFnan
aFnan
aFnan
aFnan
aFnan
aFnan
aFnan
aFnan
aFnan
aFnan
aFnan
aFnan
aFnan
aFnan
aFnan
aFnan
aFnan
aFnan
aFnan
aFnan
aFnan
aFnan
aFnan
aFnan
aFnan
aFnan
aFnan
aFnan
aFnan
aFnan
aFnan
aFnan
aFnan
aFnan
aFnan
aFnan
aFnan
aFnan
aFnan
aFnan
aFnan
aFnan
aFnan
aFnan
aFnan
aFnan
aFnan
aFnan
aFnan
aFnan
aFnan
aFnan
aFnan
aFnan
aFnan
aFnan
aFnan
aFnan
aFnan
aFnan
aFnan
aFnan
aFnan
aFnan
aFnan
aFnan
aFnan
aFnan
aFnan
aFnan
aFnan
aFnan
aFnan
aFnan
aFnan
aFnan
aFnan
aFnan
aFnan
aFnan
aFnan
aFnan
aFnan
aFnan
aFnan
aFnan
aF2001232087.0
aF2001232087.0
aF2001232087.0
aF2001232087.0
aF2001232087.0
aF2001232087.0
aF2001232087.0
aF2001232087.0
aF2001232087.0
aF2001232087.0
aF2001232087.0
aF2001232087.0
aF2001232087.0
aF2001232087.0
aF2001232087.0
aF2001232087.0
aF2001232087.0
aF2001232087.0
aF2001232087.0
aF2001232087.0
aF2001232087.0
aF2001232087.0
aF2001232087.0
aF2001232087.0
aF2001232087.0
aF2001232087.0
aF2001232087.0
aF2001232087.0
aF2001232087.0
aF2001232087.0
aF2001232087.0
aF2001232087.0
aF2001232087.0
aF2001232087.0
aF2001232087.0
aF2001232087.0
aF2001232087.0
aF2001232087.0
asS'2001360584'
p219
(lp220
Fnan
aFnan
aFnan
aFnan
aFnan
aFnan
aFnan
aFnan
aFnan
aFnan
aFnan
aFnan
aFnan
aFnan
aFnan
aFnan
aFnan
aFnan
aFnan
aFnan
aFnan
aFnan
aFnan
aFnan
aFnan
aFnan
aFnan
aFnan
aFnan
aFnan
aFnan
aFnan
aFnan
aFnan
aFnan
aFnan
aFnan
aFnan
aFnan
aFnan
aFnan
aFnan
aFnan
aFnan
aFnan
aFnan
aFnan
aFnan
aFnan
aFnan
aFnan
aFnan
aFnan
aFnan
aFnan
aFnan
aFnan
aFnan
aFnan
aFnan
aFnan
aFnan
aFnan
aFnan
aFnan
aFnan
aFnan
aFnan
aFnan
aFnan
aFnan
aFnan
aFnan
aFnan
aFnan
aFnan
aFnan
aFnan
aFnan
aFnan
aFnan
aFnan
aFnan
aFnan
aFnan
aFnan
aFnan
aFnan
aF2001360584.0
aF2001360584.0
aF2001360584.0
aF2001360584.0
aF2001360584.0
aF2001360584.0
aF2001360584.0
aF2001360584.0
aF2001360584.0
aF2001360584.0
aF2001360584.0
aF2001360584.0
aF2001360584.0
aF2001360584.0
aF2001360584.0
aF2001360584.0
aF2001360584.0
aF2001360584.0
aF2001360584.0
aF2001360584.0
aF2001360584.0
aF2001360584.0
aF2001360584.0
aF2001360584.0
aF2001360584.0
aF2001360584.0
aF2001360584.0
aF2001360584.0
aF2001360584.0
aF2001360584.0
aF2001360584.0
aF2001360584.0
aF2001360584.0
aF2001360584.0
aF2001360584.0
aF2001360584.0
aF2001360584.0
aF2001360584.0
aF2001360584.0
asS'2001360581'
p221
(lp222
Fnan
aFnan
aFnan
aFnan
aFnan
aFnan
aFnan
aFnan
aFnan
aFnan
aFnan
aFnan
aFnan
aFnan
aFnan
aFnan
aFnan
aFnan
aFnan
aFnan
aFnan
aFnan
aFnan
aFnan
aFnan
aFnan
aFnan
aFnan
aFnan
aFnan
aFnan
aFnan
aFnan
aFnan
aFnan
aFnan
aFnan
aFnan
aFnan
aFnan
aFnan
aFnan
aFnan
aFnan
aFnan
aFnan
aFnan
aFnan
aFnan
aFnan
aFnan
aFnan
aFnan
aFnan
aFnan
aFnan
aFnan
aFnan
aFnan
aFnan
aFnan
aFnan
aFnan
aFnan
aFnan
aFnan
aFnan
aFnan
aFnan
aFnan
aFnan
aFnan
aFnan
aFnan
aFnan
aFnan
aFnan
aFnan
aFnan
aFnan
aFnan
aFnan
aFnan
aFnan
aFnan
aFnan
aFnan
aFnan
aF2001360581.0
aF2001360581.0
aF2001360581.0
aF2001360581.0
aF2001360581.0
aF2001360581.0
aF2001360581.0
aF2001360581.0
aF2001360581.0
aF2001360581.0
aF2001360581.0
aF2001360581.0
aF2001360581.0
aF2001360581.0
aF2001360581.0
aF2001360581.0
aF2001360581.0
aF2001360581.0
aF2001360581.0
aF2001360581.0
aF2001360581.0
aF2001360581.0
aF2001360581.0
aF2001360581.0
aF2001360581.0
aF2001360581.0
aF2001360581.0
aF2001360581.0
aF2001360581.0
aF2001360581.0
aF2001360581.0
aF2001360581.0
aF2001360581.0
aF2001360581.0
aF2001360581.0
aF2001360581.0
aF2001360581.0
aF2001360581.0
aF2001360581.0
asS'2001360580'
p223
(lp224
Fnan
aFnan
aFnan
aFnan
aFnan
aFnan
aFnan
aFnan
aFnan
aFnan
aFnan
aFnan
aFnan
aFnan
aFnan
aFnan
aFnan
aFnan
aFnan
aFnan
aFnan
aFnan
aFnan
aFnan
aFnan
aFnan
aFnan
aFnan
aFnan
aFnan
aFnan
aFnan
aFnan
aFnan
aFnan
aFnan
aFnan
aFnan
aFnan
aFnan
aFnan
aFnan
aFnan
aFnan
aFnan
aFnan
aFnan
aFnan
aFnan
aFnan
aFnan
aFnan
aFnan
aFnan
aFnan
aFnan
aFnan
aFnan
aFnan
aFnan
aFnan
aFnan
aFnan
aFnan
aFnan
aFnan
aFnan
aFnan
aFnan
aFnan
aFnan
aFnan
aFnan
aFnan
aFnan
aFnan
aFnan
aFnan
aFnan
aFnan
aFnan
aFnan
aFnan
aFnan
aFnan
aFnan
aFnan
aFnan
aF2001360580.0
aF2001360580.0
aF2001360580.0
aF2001360580.0
aF2001360580.0
aF2001360580.0
aF2001360580.0
aF2001360580.0
aF2001360580.0
aF2001360580.0
aF2001360580.0
aF2001360580.0
aF2001360580.0
aF2001360580.0
aF2001360580.0
aF2001360580.0
aF2001360580.0
aF2001360580.0
aF2001360580.0
aF2001360580.0
aF2001360580.0
aF2001360580.0
aF2001360580.0
aF2001360580.0
aF2001360580.0
aF2001360580.0
aF2001360580.0
aF2001360580.0
aF2001360580.0
aF2001360580.0
aF2001360580.0
aF2001360580.0
aF2001360580.0
aF2001360580.0
aF2001360580.0
aF2001360580.0
aF2001360580.0
aF2001360580.0
aF2001360580.0
asS'2001360638'
p225
(lp226
Fnan
aFnan
aFnan
aFnan
aFnan
aFnan
aFnan
aFnan
aFnan
aFnan
aFnan
aFnan
aFnan
aFnan
aFnan
aFnan
aFnan
aFnan
aFnan
aFnan
aFnan
aFnan
aFnan
aFnan
aFnan
aFnan
aFnan
aFnan
aFnan
aFnan
aFnan
aFnan
aFnan
aFnan
aFnan
aFnan
aFnan
aFnan
aFnan
aFnan
aFnan
aFnan
aFnan
aFnan
aFnan
aFnan
aFnan
aFnan
aFnan
aFnan
aFnan
aFnan
aFnan
aFnan
aFnan
aFnan
aFnan
aFnan
aFnan
aFnan
aFnan
aFnan
aFnan
aFnan
aFnan
aFnan
aFnan
aFnan
aFnan
aFnan
aFnan
aFnan
aFnan
aFnan
aFnan
aFnan
aFnan
aFnan
aFnan
aFnan
aFnan
aFnan
aFnan
aFnan
aFnan
aFnan
aFnan
aFnan
aFnan
aF2001360638.0
aF2001360638.0
aF2001360638.0
aF2001360638.0
aF2001360638.0
aF2001360638.0
aF2001360638.0
aF2001360638.0
aF2001360638.0
aF2001360638.0
aF2001360638.0
aF2001360638.0
aF2001360638.0
aF2001360638.0
aF2001360638.0
aF2001360638.0
aF2001360638.0
aF2001360638.0
aF2001360638.0
aF2001360638.0
aF2001360638.0
aF2001360638.0
aF2001360638.0
aF2001360638.0
aF2001360638.0
aF2001360638.0
aF2001360638.0
aF2001360638.0
aF2001360638.0
aF2001360638.0
aF2001360638.0
aF2001360638.0
aF2001360638.0
aF2001360638.0
aF2001360638.0
aF2001360638.0
aF2001360638.0
aF2001360638.0
asS'2001360579'
p227
(lp228
Fnan
aFnan
aFnan
aFnan
aFnan
aFnan
aFnan
aFnan
aFnan
aFnan
aFnan
aFnan
aFnan
aFnan
aFnan
aFnan
aFnan
aFnan
aFnan
aFnan
aFnan
aFnan
aFnan
aFnan
aFnan
aFnan
aFnan
aFnan
aFnan
aFnan
aFnan
aFnan
aFnan
aFnan
aFnan
aFnan
aFnan
aFnan
aFnan
aFnan
aFnan
aFnan
aFnan
aFnan
aFnan
aFnan
aFnan
aFnan
aFnan
aFnan
aFnan
aFnan
aFnan
aFnan
aFnan
aFnan
aFnan
aFnan
aFnan
aFnan
aFnan
aFnan
aFnan
aFnan
aFnan
aFnan
aFnan
aFnan
aFnan
aFnan
aFnan
aFnan
aFnan
aFnan
aFnan
aFnan
aFnan
aFnan
aFnan
aFnan
aFnan
aFnan
aFnan
aFnan
aFnan
aFnan
aFnan
aFnan
aFnan
aF2001360579.0
aF2001360579.0
aF2001360579.0
aF2001360579.0
aF2001360579.0
aF2001360579.0
aF2001360579.0
aF2001360579.0
aF2001360579.0
aF2001360579.0
aF2001360579.0
aF2001360579.0
aF2001360579.0
aF2001360579.0
aF2001360579.0
aF2001360579.0
aF2001360579.0
aF2001360579.0
aF2001360579.0
aF2001360579.0
aF2001360579.0
aF2001360579.0
aF2001360579.0
aF2001360579.0
aF2001360579.0
aF2001360579.0
aF2001360579.0
aF2001360579.0
aF2001360579.0
aF2001360579.0
aF2001360579.0
aF2001360579.0
aF2001360579.0
aF2001360579.0
aF2001360579.0
aF2001360579.0
aF2001360579.0
aF2001360579.0
assS'PRdaily'
p229
F101.1
sS'Error'
p230
(dp231
S'2001232057'
p232
(lp233
Fnan
aFnan
aFnan
aFnan
aFnan
aFnan
aFnan
aFnan
aFnan
aFnan
aFnan
aFnan
aFnan
aFnan
aFnan
aFnan
aFnan
aFnan
aFnan
aFnan
aFnan
aFnan
aFnan
aFnan
aFnan
aFnan
aFnan
aFnan
aFnan
aFnan
aFnan
aFnan
aFnan
aFnan
aFnan
aFnan
aFnan
aFnan
aFnan
aFnan
aFnan
aFnan
aFnan
aFnan
aFnan
aFnan
aFnan
aFnan
aFnan
aFnan
aFnan
aFnan
aFnan
aFnan
aFnan
aFnan
aFnan
aFnan
aFnan
aFnan
aFnan
aFnan
aFnan
aFnan
aFnan
aFnan
aFnan
aFnan
aFnan
aFnan
aFnan
aFnan
aFnan
aFnan
aFnan
aFnan
aFnan
aFnan
aFnan
aFnan
aFnan
aFnan
aFnan
aFnan
aFnan
aFnan
aFnan
aFnan
aFnan
aF0.0
aF0.0
aF0.0
aF0.0
aF0.0
aF0.0
aF0.0
aF0.0
aF0.0
aF0.0
aF0.0
aF0.0
aF0.0
aF0.0
aF0.0
aF0.0
aF0.0
aF0.0
aF0.0
aF0.0
aF0.0
aF0.0
aF0.0
aF0.0
aF0.0
aF0.0
aF0.0
aF0.0
aF0.0
aF0.0
aF0.0
aF0.0
aF0.0
aF0.0
aF0.0
aF0.0
aF0.0
aF0.0
asS'2001257130'
p234
(lp235
Fnan
aFnan
aFnan
aFnan
aFnan
aFnan
aFnan
aFnan
aFnan
aFnan
aFnan
aFnan
aFnan
aFnan
aFnan
aFnan
aFnan
aFnan
aFnan
aFnan
aFnan
aFnan
aFnan
aFnan
aFnan
aFnan
aFnan
aFnan
aFnan
aFnan
aFnan
aFnan
aFnan
aFnan
aFnan
aFnan
aFnan
aFnan
aFnan
aFnan
aFnan
aFnan
aFnan
aFnan
aFnan
aFnan
aFnan
aFnan
aFnan
aFnan
aFnan
aFnan
aFnan
aFnan
aFnan
aFnan
aFnan
aFnan
aFnan
aFnan
aFnan
aFnan
aFnan
aFnan
aFnan
aFnan
aFnan
aFnan
aFnan
aFnan
aFnan
aFnan
aFnan
aFnan
aFnan
aFnan
aFnan
aFnan
aFnan
aFnan
aFnan
aFnan
aFnan
aFnan
aFnan
aFnan
aFnan
aFnan
aF0.0
aF0.0
aF0.0
aF0.0
aF0.0
aF0.0
aF0.0
aF0.0
aF0.0
aF0.0
aF0.0
aF0.0
aF0.0
aF0.0
aF0.0
aF0.0
aF0.0
aF0.0
aF0.0
aF0.0
aF0.0
aF0.0
aF0.0
aF0.0
aF0.0
aF0.0
aF0.0
aF0.0
aF0.0
aF0.0
aF0.0
aF0.0
aF0.0
aF0.0
aF0.0
aF0.0
aF0.0
aF0.0
aF0.0
asS'2001360643'
p236
(lp237
Fnan
aFnan
aFnan
aFnan
aFnan
aFnan
aFnan
aFnan
aFnan
aFnan
aFnan
aFnan
aFnan
aFnan
aFnan
aFnan
aFnan
aFnan
aFnan
aFnan
aFnan
aFnan
aFnan
aFnan
aFnan
aFnan
aFnan
aFnan
aFnan
aFnan
aFnan
aFnan
aFnan
aFnan
aFnan
aFnan
aFnan
aFnan
aFnan
aFnan
aFnan
aFnan
aFnan
aFnan
aFnan
aFnan
aFnan
aFnan
aFnan
aFnan
aFnan
aFnan
aFnan
aFnan
aFnan
aFnan
aFnan
aFnan
aFnan
aFnan
aFnan
aFnan
aFnan
aFnan
aFnan
aFnan
aFnan
aFnan
aFnan
aFnan
aFnan
aFnan
aFnan
aFnan
aFnan
aFnan
aFnan
aFnan
aFnan
aFnan
aFnan
aFnan
aFnan
aFnan
aFnan
aFnan
aFnan
aFnan
aFnan
aF0.0
aF0.0
aF0.0
aF0.0
aF0.0
aF0.0
aF0.0
aF0.0
aF0.0
aF0.0
aF0.0
aF0.0
aF0.0
aF0.0
aF0.0
aF0.0
aF0.0
aF0.0
aF0.0
aF0.0
aF0.0
aF0.0
aF0.0
aF0.0
aF0.0
aF0.0
aF0.0
aF0.0
aF0.0
aF0.0
aF0.0
aF0.0
aF0.0
aF0.0
aF0.0
aF0.0
aF0.0
aF0.0
asS'2001360612'
p238
(lp239
Fnan
aFnan
aFnan
aFnan
aFnan
aFnan
aFnan
aFnan
aFnan
aFnan
aFnan
aFnan
aFnan
aFnan
aFnan
aFnan
aFnan
aFnan
aFnan
aFnan
aFnan
aFnan
aFnan
aFnan
aFnan
aFnan
aFnan
aFnan
aFnan
aFnan
aFnan
aFnan
aFnan
aFnan
aFnan
aFnan
aFnan
aFnan
aFnan
aFnan
aFnan
aFnan
aFnan
aFnan
aFnan
aFnan
aFnan
aFnan
aFnan
aFnan
aFnan
aFnan
aFnan
aFnan
aFnan
aFnan
aFnan
aFnan
aFnan
aFnan
aFnan
aFnan
aFnan
aFnan
aFnan
aFnan
aFnan
aFnan
aFnan
aFnan
aFnan
aFnan
aFnan
aFnan
aFnan
aFnan
aFnan
aFnan
aFnan
aFnan
aFnan
aFnan
aFnan
aFnan
aFnan
aFnan
aFnan
aFnan
aF0.0
aF0.0
aF0.0
aF0.0
aF0.0
aF0.0
aF0.0
aF0.0
aF0.0
aF0.0
aF0.0
aF0.0
aF0.0
aF0.0
aF0.0
aF0.0
aF0.0
aF0.0
aF0.0
aF0.0
aF0.0
aF0.0
aF0.0
aF0.0
aF0.0
aF0.0
aF0.0
aF0.0
aF0.0
aF0.0
aF0.0
aF0.0
aF0.0
aF0.0
aF0.0
aF0.0
aF0.0
aF0.0
aF0.0
asS'2001360610'
p240
(lp241
Fnan
aFnan
aFnan
aFnan
aFnan
aFnan
aFnan
aFnan
aFnan
aFnan
aFnan
aFnan
aFnan
aFnan
aFnan
aFnan
aFnan
aFnan
aFnan
aFnan
aFnan
aFnan
aFnan
aFnan
aFnan
aFnan
aFnan
aFnan
aFnan
aFnan
aFnan
aFnan
aFnan
aFnan
aFnan
aFnan
aFnan
aFnan
aFnan
aFnan
aFnan
aFnan
aFnan
aFnan
aFnan
aFnan
aFnan
aFnan
aFnan
aFnan
aFnan
aFnan
aFnan
aFnan
aFnan
aFnan
aFnan
aFnan
aFnan
aFnan
aFnan
aFnan
aFnan
aFnan
aFnan
aFnan
aFnan
aFnan
aFnan
aFnan
aFnan
aFnan
aFnan
aFnan
aFnan
aFnan
aFnan
aFnan
aFnan
aFnan
aFnan
aFnan
aFnan
aFnan
aFnan
aFnan
aFnan
aFnan
aF0.0
aF0.0
aF0.0
aF0.0
aF0.0
aF0.0
aF0.0
aF0.0
aF0.0
aF0.0
aF0.0
aF0.0
aF0.0
aF0.0
aF0.0
aF0.0
aF0.0
aF0.0
aF0.0
aF0.0
aF0.0
aF0.0
aF0.0
aF0.0
aF0.0
aF0.0
aF0.0
aF0.0
aF0.0
aF0.0
aF0.0
aF0.0
aF0.0
aF0.0
aF0.0
aF0.0
aF0.0
aF0.0
aF0.0
asS'2001232083'
p242
(lp243
Fnan
aFnan
aFnan
aFnan
aFnan
aFnan
aFnan
aFnan
aFnan
aFnan
aFnan
aFnan
aFnan
aFnan
aFnan
aFnan
aFnan
aFnan
aFnan
aFnan
aFnan
aFnan
aFnan
aFnan
aFnan
aFnan
aFnan
aFnan
aFnan
aFnan
aFnan
aFnan
aFnan
aFnan
aFnan
aFnan
aFnan
aFnan
aFnan
aFnan
aFnan
aFnan
aFnan
aFnan
aFnan
aFnan
aFnan
aFnan
aFnan
aFnan
aFnan
aFnan
aFnan
aFnan
aFnan
aFnan
aFnan
aFnan
aFnan
aFnan
aFnan
aFnan
aFnan
aFnan
aFnan
aFnan
aFnan
aFnan
aFnan
aFnan
aFnan
aFnan
aFnan
aFnan
aFnan
aFnan
aFnan
aFnan
aFnan
aFnan
aFnan
aFnan
aFnan
aFnan
aFnan
aFnan
aFnan
aFnan
aFnan
aF0.0
aF0.0
aF0.0
aF0.0
aF0.0
aF0.0
aF0.0
aF0.0
aF0.0
aF0.0
aF0.0
aF0.0
aF0.0
aF0.0
aF0.0
aF0.0
aF0.0
aF0.0
aF0.0
aF0.0
aF0.0
aF0.0
aF0.0
aF0.0
aF0.0
aF0.0
aF0.0
aF0.0
aF0.0
aF0.0
aF0.0
aF0.0
aF0.0
aF0.0
aF0.0
aF0.0
aF0.0
aF0.0
asS'2001232087'
p244
(lp245
Fnan
aFnan
aFnan
aFnan
aFnan
aFnan
aFnan
aFnan
aFnan
aFnan
aFnan
aFnan
aFnan
aFnan
aFnan
aFnan
aFnan
aFnan
aFnan
aFnan
aFnan
aFnan
aFnan
aFnan
aFnan
aFnan
aFnan
aFnan
aFnan
aFnan
aFnan
aFnan
aFnan
aFnan
aFnan
aFnan
aFnan
aFnan
aFnan
aFnan
aFnan
aFnan
aFnan
aFnan
aFnan
aFnan
aFnan
aFnan
aFnan
aFnan
aFnan
aFnan
aFnan
aFnan
aFnan
aFnan
aFnan
aFnan
aFnan
aFnan
aFnan
aFnan
aFnan
aFnan
aFnan
aFnan
aFnan
aFnan
aFnan
aFnan
aFnan
aFnan
aFnan
aFnan
aFnan
aFnan
aFnan
aFnan
aFnan
aFnan
aFnan
aFnan
aFnan
aFnan
aFnan
aFnan
aFnan
aFnan
aFnan
aF0.0
aF0.0
aF0.0
aF0.0
aF0.0
aF0.0
aF0.0
aF0.0
aF0.0
aF0.0
aF0.0
aF0.0
aF0.0
aF0.0
aF0.0
aF0.0
aF0.0
aF0.0
aF0.0
aF0.0
aF0.0
aF0.0
aF0.0
aF0.0
aF0.0
aF0.0
aF0.0
aF0.0
aF0.0
aF0.0
aF0.0
aF0.0
aF0.0
aF0.0
aF0.0
aF0.0
aF0.0
aF0.0
asS'2001360584'
p246
(lp247
Fnan
aFnan
aFnan
aFnan
aFnan
aFnan
aFnan
aFnan
aFnan
aFnan
aFnan
aFnan
aFnan
aFnan
aFnan
aFnan
aFnan
aFnan
aFnan
aFnan
aFnan
aFnan
aFnan
aFnan
aFnan
aFnan
aFnan
aFnan
aFnan
aFnan
aFnan
aFnan
aFnan
aFnan
aFnan
aFnan
aFnan
aFnan
aFnan
aFnan
aFnan
aFnan
aFnan
aFnan
aFnan
aFnan
aFnan
aFnan
aFnan
aFnan
aFnan
aFnan
aFnan
aFnan
aFnan
aFnan
aFnan
aFnan
aFnan
aFnan
aFnan
aFnan
aFnan
aFnan
aFnan
aFnan
aFnan
aFnan
aFnan
aFnan
aFnan
aFnan
aFnan
aFnan
aFnan
aFnan
aFnan
aFnan
aFnan
aFnan
aFnan
aFnan
aFnan
aFnan
aFnan
aFnan
aFnan
aFnan
aF0.0
aF0.0
aF0.0
aF0.0
aF0.0
aF0.0
aF0.0
aF0.0
aF0.0
aF0.0
aF0.0
aF0.0
aF0.0
aF0.0
aF0.0
aF0.0
aF0.0
aF0.0
aF0.0
aF0.0
aF0.0
aF0.0
aF0.0
aF0.0
aF0.0
aF0.0
aF0.0
aF0.0
aF0.0
aF0.0
aF0.0
aF0.0
aF0.0
aF0.0
aF0.0
aF0.0
aF0.0
aF0.0
aF0.0
asS'2001360581'
p248
(lp249
Fnan
aFnan
aFnan
aFnan
aFnan
aFnan
aFnan
aFnan
aFnan
aFnan
aFnan
aFnan
aFnan
aFnan
aFnan
aFnan
aFnan
aFnan
aFnan
aFnan
aFnan
aFnan
aFnan
aFnan
aFnan
aFnan
aFnan
aFnan
aFnan
aFnan
aFnan
aFnan
aFnan
aFnan
aFnan
aFnan
aFnan
aFnan
aFnan
aFnan
aFnan
aFnan
aFnan
aFnan
aFnan
aFnan
aFnan
aFnan
aFnan
aFnan
aFnan
aFnan
aFnan
aFnan
aFnan
aFnan
aFnan
aFnan
aFnan
aFnan
aFnan
aFnan
aFnan
aFnan
aFnan
aFnan
aFnan
aFnan
aFnan
aFnan
aFnan
aFnan
aFnan
aFnan
aFnan
aFnan
aFnan
aFnan
aFnan
aFnan
aFnan
aFnan
aFnan
aFnan
aFnan
aFnan
aFnan
aFnan
aF0.0
aF0.0
aF0.0
aF0.0
aF0.0
aF0.0
aF0.0
aF0.0
aF0.0
aF0.0
aF0.0
aF0.0
aF0.0
aF0.0
aF0.0
aF0.0
aF0.0
aF0.0
aF0.0
aF0.0
aF0.0
aF0.0
aF0.0
aF0.0
aF0.0
aF0.0
aF0.0
aF0.0
aF0.0
aF0.0
aF0.0
aF0.0
aF0.0
aF0.0
aF0.0
aF0.0
aF0.0
aF0.0
aF0.0
asS'2001360580'
p250
(lp251
Fnan
aFnan
aFnan
aFnan
aFnan
aFnan
aFnan
aFnan
aFnan
aFnan
aFnan
aFnan
aFnan
aFnan
aFnan
aFnan
aFnan
aFnan
aFnan
aFnan
aFnan
aFnan
aFnan
aFnan
aFnan
aFnan
aFnan
aFnan
aFnan
aFnan
aFnan
aFnan
aFnan
aFnan
aFnan
aFnan
aFnan
aFnan
aFnan
aFnan
aFnan
aFnan
aFnan
aFnan
aFnan
aFnan
aFnan
aFnan
aFnan
aFnan
aFnan
aFnan
aFnan
aFnan
aFnan
aFnan
aFnan
aFnan
aFnan
aFnan
aFnan
aFnan
aFnan
aFnan
aFnan
aFnan
aFnan
aFnan
aFnan
aFnan
aFnan
aFnan
aFnan
aFnan
aFnan
aFnan
aFnan
aFnan
aFnan
aFnan
aFnan
aFnan
aFnan
aFnan
aFnan
aFnan
aFnan
aFnan
aF0.0
aF0.0
aF0.0
aF0.0
aF0.0
aF0.0
aF0.0
aF0.0
aF0.0
aF0.0
aF0.0
aF0.0
aF0.0
aF0.0
aF0.0
aF0.0
aF0.0
aF0.0
aF0.0
aF0.0
aF0.0
aF0.0
aF0.0
aF0.0
aF0.0
aF0.0
aF0.0
aF0.0
aF0.0
aF0.0
aF0.0
aF0.0
aF0.0
aF0.0
aF0.0
aF0.0
aF0.0
aF0.0
aF0.0
asS'2001360638'
p252
(lp253
Fnan
aFnan
aFnan
aFnan
aFnan
aFnan
aFnan
aFnan
aFnan
aFnan
aFnan
aFnan
aFnan
aFnan
aFnan
aFnan
aFnan
aFnan
aFnan
aFnan
aFnan
aFnan
aFnan
aFnan
aFnan
aFnan
aFnan
aFnan
aFnan
aFnan
aFnan
aFnan
aFnan
aFnan
aFnan
aFnan
aFnan
aFnan
aFnan
aFnan
aFnan
aFnan
aFnan
aFnan
aFnan
aFnan
aFnan
aFnan
aFnan
aFnan
aFnan
aFnan
aFnan
aFnan
aFnan
aFnan
aFnan
aFnan
aFnan
aFnan
aFnan
aFnan
aFnan
aFnan
aFnan
aFnan
aFnan
aFnan
aFnan
aFnan
aFnan
aFnan
aFnan
aFnan
aFnan
aFnan
aFnan
aFnan
aFnan
aFnan
aFnan
aFnan
aFnan
aFnan
aFnan
aFnan
aFnan
aFnan
aFnan
aF0.0
aF0.0
aF0.0
aF0.0
aF0.0
aF0.0
aF0.0
aF0.0
aF0.0
aF0.0
aF0.0
aF0.0
aF0.0
aF0.0
aF0.0
aF0.0
aF0.0
aF0.0
aF0.0
aF0.0
aF0.0
aF0.0
aF0.0
aF0.0
aF0.0
aF0.0
aF0.0
aF0.0
aF0.0
aF0.0
aF0.0
aF0.0
aF0.0
aF0.0
aF0.0
aF0.0
aF0.0
aF0.0
asS'2001360579'
p254
(lp255
Fnan
aFnan
aFnan
aFnan
aFnan
aFnan
aFnan
aFnan
aFnan
aFnan
aFnan
aFnan
aFnan
aFnan
aFnan
aFnan
aFnan
aFnan
aFnan
aFnan
aFnan
aFnan
aFnan
aFnan
aFnan
aFnan
aFnan
aFnan
aFnan
aFnan
aFnan
aFnan
aFnan
aFnan
aFnan
aFnan
aFnan
aFnan
aFnan
aFnan
aFnan
aFnan
aFnan
aFnan
aFnan
aFnan
aFnan
aFnan
aFnan
aFnan
aFnan
aFnan
aFnan
aFnan
aFnan
aFnan
aFnan
aFnan
aFnan
aFnan
aFnan
aFnan
aFnan
aFnan
aFnan
aFnan
aFnan
aFnan
aFnan
aFnan
aFnan
aFnan
aFnan
aFnan
aFnan
aFnan
aFnan
aFnan
aFnan
aFnan
aFnan
aFnan
aFnan
aFnan
aFnan
aFnan
aFnan
aFnan
aFnan
aF0.0
aF0.0
aF0.0
aF0.0
aF0.0
aF0.0
aF0.0
aF0.0
aF0.0
aF0.0
aF0.0
aF0.0
aF0.0
aF0.0
aF0.0
aF0.0
aF0.0
aF0.0
aF0.0
aF0.0
aF0.0
aF0.0
aF0.0
aF0.0
aF0.0
aF0.0
aF0.0
aF0.0
aF0.0
aF0.0
aF0.0
aF0.0
aF0.0
aF0.0
aF0.0
aF0.0
aF0.0
aF0.0
assS'Edaily'
p256
F75.7
sS'Mode'
p257
(dp258
S'2001232057'
p259
(lp260
Fnan
aFnan
aFnan
aFnan
aFnan
aFnan
aFnan
aFnan
aFnan
aFnan
aFnan
aFnan
aFnan
aFnan
aFnan
aFnan
aFnan
aFnan
aFnan
aFnan
aFnan
aFnan
aFnan
aFnan
aFnan
aFnan
aFnan
aFnan
aFnan
aFnan
aFnan
aFnan
aFnan
aFnan
aFnan
aFnan
aFnan
aFnan
aFnan
aFnan
aFnan
aFnan
aFnan
aFnan
aFnan
aFnan
aFnan
aFnan
aFnan
aFnan
aFnan
aFnan
aFnan
aFnan
aFnan
aFnan
aFnan
aFnan
aFnan
aFnan
aFnan
aFnan
aFnan
aFnan
aFnan
aFnan
aFnan
aFnan
aFnan
aFnan
aFnan
aFnan
aFnan
aFnan
aFnan
aFnan
aFnan
aFnan
aFnan
aFnan
aFnan
aFnan
aFnan
aFnan
aFnan
aFnan
aFnan
aFnan
aFnan
aF3.0
aF2.0
aF7.0
aF7.0
aF7.0
aF7.0
aF7.0
aF3.0
aF7.0
aF7.0
aF7.0
aF7.0
aF7.0
aF7.0
aF7.0
aF7.0
aF7.0
aF7.0
aF7.0
aF7.0
aF7.0
aF7.0
aF7.0
aF7.0
aF7.0
aF7.0
aF7.0
aF7.0
aF7.0
aF7.0
aF7.0
aF7.0
aF7.0
aF7.0
aF7.0
aF7.0
aF7.0
aF7.0
asS'2001257130'
p261
(lp262
Fnan
aFnan
aFnan
aFnan
aFnan
aFnan
aFnan
aFnan
aFnan
aFnan
aFnan
aFnan
aFnan
aFnan
aFnan
aFnan
aFnan
aFnan
aFnan
aFnan
aFnan
aFnan
aFnan
aFnan
aFnan
aFnan
aFnan
aFnan
aFnan
aFnan
aFnan
aFnan
aFnan
aFnan
aFnan
aFnan
aFnan
aFnan
aFnan
aFnan
aFnan
aFnan
aFnan
aFnan
aFnan
aFnan
aFnan
aFnan
aFnan
aFnan
aFnan
aFnan
aFnan
aFnan
aFnan
aFnan
aFnan
aFnan
aFnan
aFnan
aFnan
aFnan
aFnan
aFnan
aFnan
aFnan
aFnan
aFnan
aFnan
aFnan
aFnan
aFnan
aFnan
aFnan
aFnan
aFnan
aFnan
aFnan
aFnan
aFnan
aFnan
aFnan
aFnan
aFnan
aFnan
aFnan
aFnan
aFnan
aF3.0
aF3.0
aF2.0
aF3.0
aF3.0
aF6.0
aF7.0
aF7.0
aF3.0
aF7.0
aF7.0
aF7.0
aF7.0
aF7.0
aF7.0
aF7.0
aF7.0
aF7.0
aF7.0
aF7.0
aF7.0
aF7.0
aF7.0
aF7.0
aF7.0
aF7.0
aF7.0
aF7.0
aF7.0
aF7.0
aF7.0
aF7.0
aF7.0
aF7.0
aF7.0
aF7.0
aF7.0
aF7.0
aF7.0
asS'2001360643'
p263
(lp264
Fnan
aFnan
aFnan
aFnan
aFnan
aFnan
aFnan
aFnan
aFnan
aFnan
aFnan
aFnan
aFnan
aFnan
aFnan
aFnan
aFnan
aFnan
aFnan
aFnan
aFnan
aFnan
aFnan
aFnan
aFnan
aFnan
aFnan
aFnan
aFnan
aFnan
aFnan
aFnan
aFnan
aFnan
aFnan
aFnan
aFnan
aFnan
aFnan
aFnan
aFnan
aFnan
aFnan
aFnan
aFnan
aFnan
aFnan
aFnan
aFnan
aFnan
aFnan
aFnan
aFnan
aFnan
aFnan
aFnan
aFnan
aFnan
aFnan
aFnan
aFnan
aFnan
aFnan
aFnan
aFnan
aFnan
aFnan
aFnan
aFnan
aFnan
aFnan
aFnan
aFnan
aFnan
aFnan
aFnan
aFnan
aFnan
aFnan
aFnan
aFnan
aFnan
aFnan
aFnan
aFnan
aFnan
aFnan
aFnan
aFnan
aF3.0
aF3.0
aF7.0
aF7.0
aF7.0
aF7.0
aF7.0
aF3.0
aF7.0
aF7.0
aF7.0
aF7.0
aF7.0
aF7.0
aF7.0
aF7.0
aF7.0
aF7.0
aF7.0
aF7.0
aF7.0
aF7.0
aF7.0
aF7.0
aF7.0
aF7.0
aF7.0
aF7.0
aF7.0
aF7.0
aF7.0
aF7.0
aF7.0
aF7.0
aF7.0
aF7.0
aF7.0
aF7.0
asS'2001360612'
p265
(lp266
Fnan
aFnan
aFnan
aFnan
aFnan
aFnan
aFnan
aFnan
aFnan
aFnan
aFnan
aFnan
aFnan
aFnan
aFnan
aFnan
aFnan
aFnan
aFnan
aFnan
aFnan
aFnan
aFnan
aFnan
aFnan
aFnan
aFnan
aFnan
aFnan
aFnan
aFnan
aFnan
aFnan
aFnan
aFnan
aFnan
aFnan
aFnan
aFnan
aFnan
aFnan
aFnan
aFnan
aFnan
aFnan
aFnan
aFnan
aFnan
aFnan
aFnan
aFnan
aFnan
aFnan
aFnan
aFnan
aFnan
aFnan
aFnan
aFnan
aFnan
aFnan
aFnan
aFnan
aFnan
aFnan
aFnan
aFnan
aFnan
aFnan
aFnan
aFnan
aFnan
aFnan
aFnan
aFnan
aFnan
aFnan
aFnan
aFnan
aFnan
aFnan
aFnan
aFnan
aFnan
aFnan
aFnan
aFnan
aFnan
aF3.0
aF3.0
aF2.0
aF3.0
aF3.0
aF7.0
aF7.0
aF7.0
aF3.0
aF7.0
aF7.0
aF7.0
aF7.0
aF7.0
aF7.0
aF7.0
aF7.0
aF7.0
aF7.0
aF7.0
aF7.0
aF7.0
aF7.0
aF7.0
aF7.0
aF7.0
aF7.0
aF7.0
aF7.0
aF7.0
aF7.0
aF7.0
aF7.0
aF7.0
aF7.0
aF7.0
aF7.0
aF7.0
aF7.0
asS'2001360610'
p267
(lp268
Fnan
aFnan
aFnan
aFnan
aFnan
aFnan
aFnan
aFnan
aFnan
aFnan
aFnan
aFnan
aFnan
aFnan
aFnan
aFnan
aFnan
aFnan
aFnan
aFnan
aFnan
aFnan
aFnan
aFnan
aFnan
aFnan
aFnan
aFnan
aFnan
aFnan
aFnan
aFnan
aFnan
aFnan
aFnan
aFnan
aFnan
aFnan
aFnan
aFnan
aFnan
aFnan
aFnan
aFnan
aFnan
aFnan
aFnan
aFnan
aFnan
aFnan
aFnan
aFnan
aFnan
aFnan
aFnan
aFnan
aFnan
aFnan
aFnan
aFnan
aFnan
aFnan
aFnan
aFnan
aFnan
aFnan
aFnan
aFnan
aFnan
aFnan
aFnan
aFnan
aFnan
aFnan
aFnan
aFnan
aFnan
aFnan
aFnan
aFnan
aFnan
aFnan
aFnan
aFnan
aFnan
aFnan
aFnan
aFnan
aF3.0
aF3.0
aF2.0
aF3.0
aF3.0
aF7.0
aF7.0
aF7.0
aF3.0
aF7.0
aF7.0
aF7.0
aF7.0
aF7.0
aF7.0
aF7.0
aF7.0
aF7.0
aF7.0
aF7.0
aF7.0
aF7.0
aF7.0
aF7.0
aF7.0
aF7.0
aF7.0
aF7.0
aF7.0
aF7.0
aF7.0
aF7.0
aF7.0
aF7.0
aF7.0
aF7.0
aF7.0
aF7.0
aF7.0
asS'2001232083'
p269
(lp270
Fnan
aFnan
aFnan
aFnan
aFnan
aFnan
aFnan
aFnan
aFnan
aFnan
aFnan
aFnan
aFnan
aFnan
aFnan
aFnan
aFnan
aFnan
aFnan
aFnan
aFnan
aFnan
aFnan
aFnan
aFnan
aFnan
aFnan
aFnan
aFnan
aFnan
aFnan
aFnan
aFnan
aFnan
aFnan
aFnan
aFnan
aFnan
aFnan
aFnan
aFnan
aFnan
aFnan
aFnan
aFnan
aFnan
aFnan
aFnan
aFnan
aFnan
aFnan
aFnan
aFnan
aFnan
aFnan
aFnan
aFnan
aFnan
aFnan
aFnan
aFnan
aFnan
aFnan
aFnan
aFnan
aFnan
aFnan
aFnan
aFnan
aFnan
aFnan
aFnan
aFnan
aFnan
aFnan
aFnan
aFnan
aFnan
aFnan
aFnan
aFnan
aFnan
aFnan
aFnan
aFnan
aFnan
aFnan
aFnan
aFnan
aF3.0
aF3.0
aF7.0
aF7.0
aF7.0
aF7.0
aF7.0
aF3.0
aF7.0
aF7.0
aF7.0
aF7.0
aF7.0
aF7.0
aF7.0
aF7.0
aF7.0
aF7.0
aF7.0
aF7.0
aF7.0
aF7.0
aF7.0
aF7.0
aF7.0
aF7.0
aF7.0
aF7.0
aF7.0
aF7.0
aF7.0
aF7.0
aF7.0
aF7.0
aF7.0
aF7.0
aF7.0
aF7.0
asS'2001232087'
p271
(lp272
Fnan
aFnan
aFnan
aFnan
aFnan
aFnan
aFnan
aFnan
aFnan
aFnan
aFnan
aFnan
aFnan
aFnan
aFnan
aFnan
aFnan
aFnan
aFnan
aFnan
aFnan
aFnan
aFnan
aFnan
aFnan
aFnan
aFnan
aFnan
aFnan
aFnan
aFnan
aFnan
aFnan
aFnan
aFnan
aFnan
aFnan
aFnan
aFnan
aFnan
aFnan
aFnan
aFnan
aFnan
aFnan
aFnan
aFnan
aFnan
aFnan
aFnan
aFnan
aFnan
aFnan
aFnan
aFnan
aFnan
aFnan
aFnan
aFnan
aFnan
aFnan
aFnan
aFnan
aFnan
aFnan
aFnan
aFnan
aFnan
aFnan
aFnan
aFnan
aFnan
aFnan
aFnan
aFnan
aFnan
aFnan
aFnan
aFnan
aFnan
aFnan
aFnan
aFnan
aFnan
aFnan
aFnan
aFnan
aFnan
aFnan
aF3.0
aF3.0
aF7.0
aF7.0
aF7.0
aF7.0
aF7.0
aF3.0
aF7.0
aF7.0
aF7.0
aF7.0
aF7.0
aF7.0
aF7.0
aF7.0
aF7.0
aF7.0
aF7.0
aF7.0
aF7.0
aF7.0
aF7.0
aF7.0
aF7.0
aF7.0
aF7.0
aF7.0
aF7.0
aF7.0
aF7.0
aF7.0
aF7.0
aF7.0
aF7.0
aF7.0
aF7.0
aF7.0
asS'2001360584'
p273
(lp274
Fnan
aFnan
aFnan
aFnan
aFnan
aFnan
aFnan
aFnan
aFnan
aFnan
aFnan
aFnan
aFnan
aFnan
aFnan
aFnan
aFnan
aFnan
aFnan
aFnan
aFnan
aFnan
aFnan
aFnan
aFnan
aFnan
aFnan
aFnan
aFnan
aFnan
aFnan
aFnan
aFnan
aFnan
aFnan
aFnan
aFnan
aFnan
aFnan
aFnan
aFnan
aFnan
aFnan
aFnan
aFnan
aFnan
aFnan
aFnan
aFnan
aFnan
aFnan
aFnan
aFnan
aFnan
aFnan
aFnan
aFnan
aFnan
aFnan
aFnan
aFnan
aFnan
aFnan
aFnan
aFnan
aFnan
aFnan
aFnan
aFnan
aFnan
aFnan
aFnan
aFnan
aFnan
aFnan
aFnan
aFnan
aFnan
aFnan
aFnan
aFnan
aFnan
aFnan
aFnan
aFnan
aFnan
aFnan
aFnan
aF3.0
aF3.0
aF3.0
aF7.0
aF7.0
aF7.0
aF7.0
aF7.0
aF3.0
aF7.0
aF7.0
aF7.0
aF7.0
aF7.0
aF7.0
aF7.0
aF7.0
aF7.0
aF7.0
aF7.0
aF7.0
aF7.0
aF7.0
aF7.0
aF7.0
aF7.0
aF7.0
aF7.0
aF7.0
aF7.0
aF7.0
aF7.0
aF7.0
aF7.0
aF7.0
aF7.0
aF7.0
aF7.0
aF7.0
asS'2001360581'
p275
(lp276
Fnan
aFnan
aFnan
aFnan
aFnan
aFnan
aFnan
aFnan
aFnan
aFnan
aFnan
aFnan
aFnan
aFnan
aFnan
aFnan
aFnan
aFnan
aFnan
aFnan
aFnan
aFnan
aFnan
aFnan
aFnan
aFnan
aFnan
aFnan
aFnan
aFnan
aFnan
aFnan
aFnan
aFnan
aFnan
aFnan
aFnan
aFnan
aFnan
aFnan
aFnan
aFnan
aFnan
aFnan
aFnan
aFnan
aFnan
aFnan
aFnan
aFnan
aFnan
aFnan
aFnan
aFnan
aFnan
aFnan
aFnan
aFnan
aFnan
aFnan
aFnan
aFnan
aFnan
aFnan
aFnan
aFnan
aFnan
aFnan
aFnan
aFnan
aFnan
aFnan
aFnan
aFnan
aFnan
aFnan
aFnan
aFnan
aFnan
aFnan
aFnan
aFnan
aFnan
aFnan
aFnan
aFnan
aFnan
aFnan
aF3.0
aF3.0
aF2.0
aF3.0
aF3.0
aF7.0
aF7.0
aF7.0
aF3.0
aF7.0
aF7.0
aF7.0
aF7.0
aF7.0
aF7.0
aF7.0
aF7.0
aF7.0
aF7.0
aF7.0
aF7.0
aF7.0
aF7.0
aF7.0
aF7.0
aF7.0
aF7.0
aF7.0
aF7.0
aF7.0
aF7.0
aF7.0
aF7.0
aF7.0
aF7.0
aF7.0
aF7.0
aF7.0
aF7.0
asS'2001360580'
p277
(lp278
Fnan
aFnan
aFnan
aFnan
aFnan
aFnan
aFnan
aFnan
aFnan
aFnan
aFnan
aFnan
aFnan
aFnan
aFnan
aFnan
aFnan
aFnan
aFnan
aFnan
aFnan
aFnan
aFnan
aFnan
aFnan
aFnan
aFnan
aFnan
aFnan
aFnan
aFnan
aFnan
aFnan
aFnan
aFnan
aFnan
aFnan
aFnan
aFnan
aFnan
aFnan
aFnan
aFnan
aFnan
aFnan
aFnan
aFnan
aFnan
aFnan
aFnan
aFnan
aFnan
aFnan
aFnan
aFnan
aFnan
aFnan
aFnan
aFnan
aFnan
aFnan
aFnan
aFnan
aFnan
aFnan
aFnan
aFnan
aFnan
aFnan
aFnan
aFnan
aFnan
aFnan
aFnan
aFnan
aFnan
aFnan
aFnan
aFnan
aFnan
aFnan
aFnan
aFnan
aFnan
aFnan
aFnan
aFnan
aFnan
aF3.0
aF3.0
aF3.0
aF7.0
aF7.0
aF7.0
aF7.0
aF7.0
aF3.0
aF7.0
aF7.0
aF7.0
aF7.0
aF7.0
aF7.0
aF7.0
aF7.0
aF7.0
aF7.0
aF7.0
aF7.0
aF7.0
aF7.0
aF7.0
aF7.0
aF7.0
aF7.0
aF7.0
aF7.0
aF7.0
aF7.0
aF7.0
aF7.0
aF7.0
aF7.0
aF7.0
aF7.0
aF7.0
aF7.0
asS'2001360638'
p279
(lp280
Fnan
aFnan
aFnan
aFnan
aFnan
aFnan
aFnan
aFnan
aFnan
aFnan
aFnan
aFnan
aFnan
aFnan
aFnan
aFnan
aFnan
aFnan
aFnan
aFnan
aFnan
aFnan
aFnan
aFnan
aFnan
aFnan
aFnan
aFnan
aFnan
aFnan
aFnan
aFnan
aFnan
aFnan
aFnan
aFnan
aFnan
aFnan
aFnan
aFnan
aFnan
aFnan
aFnan
aFnan
aFnan
aFnan
aFnan
aFnan
aFnan
aFnan
aFnan
aFnan
aFnan
aFnan
aFnan
aFnan
aFnan
aFnan
aFnan
aFnan
aFnan
aFnan
aFnan
aFnan
aFnan
aFnan
aFnan
aFnan
aFnan
aFnan
aFnan
aFnan
aFnan
aFnan
aFnan
aFnan
aFnan
aFnan
aFnan
aFnan
aFnan
aFnan
aFnan
aFnan
aFnan
aFnan
aFnan
aFnan
aFnan
aF3.0
aF2.0
aF3.0
aF3.0
aF7.0
aF7.0
aF7.0
aF3.0
aF7.0
aF7.0
aF7.0
aF7.0
aF7.0
aF7.0
aF7.0
aF7.0
aF7.0
aF7.0
aF7.0
aF7.0
aF7.0
aF7.0
aF7.0
aF7.0
aF7.0
aF7.0
aF7.0
aF7.0
aF7.0
aF7.0
aF7.0
aF7.0
aF7.0
aF7.0
aF7.0
aF7.0
aF7.0
aF7.0
asS'2001360579'
p281
(lp282
Fnan
aFnan
aFnan
aFnan
aFnan
aFnan
aFnan
aFnan
aFnan
aFnan
aFnan
aFnan
aFnan
aFnan
aFnan
aFnan
aFnan
aFnan
aFnan
aFnan
aFnan
aFnan
aFnan
aFnan
aFnan
aFnan
aFnan
aFnan
aFnan
aFnan
aFnan
aFnan
aFnan
aFnan
aFnan
aFnan
aFnan
aFnan
aFnan
aFnan
aFnan
aFnan
aFnan
aFnan
aFnan
aFnan
aFnan
aFnan
aFnan
aFnan
aFnan
aFnan
aFnan
aFnan
aFnan
aFnan
aFnan
aFnan
aFnan
aFnan
aFnan
aFnan
aFnan
aFnan
aFnan
aFnan
aFnan
aFnan
aFnan
aFnan
aFnan
aFnan
aFnan
aFnan
aFnan
aFnan
aFnan
aFnan
aFnan
aFnan
aFnan
aFnan
aFnan
aFnan
aFnan
aFnan
aFnan
aFnan
aFnan
aF3.0
aF2.0
aF7.0
aF7.0
aF7.0
aF7.0
aF7.0
aF3.0
aF7.0
aF7.0
aF7.0
aF7.0
aF7.0
aF7.0
aF7.0
aF7.0
aF7.0
aF7.0
aF7.0
aF7.0
aF7.0
aF7.0
aF7.0
aF7.0
aF7.0
aF7.0
aF7.0
aF7.0
aF7.0
aF7.0
aF7.0
aF7.0
aF7.0
aF7.0
aF7.0
aF7.0
aF7.0
aF7.0
asss.